ARM GAS  C:\Users\abhim\AppData\Local\Temp\cciUZgx2.s 			page 1


   1              		.syntax unified
   2              		.cpu cortex-m3
   3              		.fpu softvfp
   4              		.eabi_attribute 20, 1
   5              		.eabi_attribute 21, 1
   6              		.eabi_attribute 23, 3
   7              		.eabi_attribute 24, 1
   8              		.eabi_attribute 25, 1
   9              		.eabi_attribute 26, 1
  10              		.eabi_attribute 30, 1
  11              		.eabi_attribute 34, 1
  12              		.eabi_attribute 18, 4
  13              		.thumb
  14              		.syntax unified
  15              		.file	"buttons.c"
  16              		.text
  17              	.Ltext0:
  18              		.cfi_sections	.debug_frame
  19              		.section	.text.buttonInit,"ax",%progbits
  20              		.align	2
  21              		.global	buttonInit
  22              		.thumb
  23              		.thumb_func
  24              		.type	buttonInit, %function
  25              	buttonInit:
  26              	.LFB111:
  27              		.file 1 "source\\bsw\\labboard\\buttons.c"
   1:source\bsw\labboard/buttons.c **** /**
   2:source\bsw\labboard/buttons.c **** * \file <filename>
   3:source\bsw\labboard/buttons.c **** * \author <author-name>
   4:source\bsw\labboard/buttons.c **** * \date <date>
   5:source\bsw\labboard/buttons.c **** *
   6:source\bsw\labboard/buttons.c **** * \brief <Symbolic File name>
   7:source\bsw\labboard/buttons.c **** *
   8:source\bsw\labboard/buttons.c **** * \copyright Copyright ©2016
   9:source\bsw\labboard/buttons.c **** * Department of electrical engineering and information technology, Hochschule Darmstadt - Universit
  10:source\bsw\labboard/buttons.c **** * Permission to use, copy, modify, and distribute this software and its documentation for education
  11:source\bsw\labboard/buttons.c **** * (unless permitted by h_da) and official h_da projects, is hereby granted for enrolled students of
  12:source\bsw\labboard/buttons.c **** * this paragraph and the following paragraph appear in all copies, modifications, and distributions
  13:source\bsw\labboard/buttons.c **** * Contact Prof.Dr.-Ing. Peter Fromm, peter.fromm@h-da.de, Birkenweg 8 64295 Darmstadt - GERMANY for
  14:source\bsw\labboard/buttons.c **** *
  15:source\bsw\labboard/buttons.c **** * \warning This software is a PROTOTYPE version and is not designed or intended for use in producti
  16:source\bsw\labboard/buttons.c **** * The user represents and warrants that it will NOT use or redistribute the Software for such purpo
  17:source\bsw\labboard/buttons.c **** * This prototype is for research purposes only. This software is provided "AS IS," without a warran
  18:source\bsw\labboard/buttons.c **** */
  19:source\bsw\labboard/buttons.c **** 
  20:source\bsw\labboard/buttons.c **** /*****************************************************************************/
  21:source\bsw\labboard/buttons.c **** /* Include files                                                             */
  22:source\bsw\labboard/buttons.c **** /*****************************************************************************/
  23:source\bsw\labboard/buttons.c **** 
  24:source\bsw\labboard/buttons.c **** #include "buttons.h"
  25:source\bsw\labboard/buttons.c **** #include "sevenSegment.h"
  26:source\bsw\labboard/buttons.c **** 
  27:source\bsw\labboard/buttons.c **** /*****************************************************************************/
  28:source\bsw\labboard/buttons.c **** /* Local pre-processor symbols/macros ('#define')                            */
  29:source\bsw\labboard/buttons.c **** /*****************************************************************************/
  30:source\bsw\labboard/buttons.c **** 
ARM GAS  C:\Users\abhim\AppData\Local\Temp\cciUZgx2.s 			page 2


  31:source\bsw\labboard/buttons.c **** //unsigned short randomNum = 0;
  32:source\bsw\labboard/buttons.c **** //unsigned short buttonFlag = 0;
  33:source\bsw\labboard/buttons.c **** 
  34:source\bsw\labboard/buttons.c **** 
  35:source\bsw\labboard/buttons.c **** /*****************************************************************************/
  36:source\bsw\labboard/buttons.c **** /* Global variable definitions (declared in header file with 'extern')       */
  37:source\bsw\labboard/buttons.c **** /*****************************************************************************/
  38:source\bsw\labboard/buttons.c **** 
  39:source\bsw\labboard/buttons.c **** /*****************************************************************************/
  40:source\bsw\labboard/buttons.c **** /* Local type definitions ('typedef')                                        */
  41:source\bsw\labboard/buttons.c **** /*****************************************************************************/
  42:source\bsw\labboard/buttons.c **** 
  43:source\bsw\labboard/buttons.c **** /*****************************************************************************/
  44:source\bsw\labboard/buttons.c **** /* Local variable definitions ('static')                                     */
  45:source\bsw\labboard/buttons.c **** /*****************************************************************************/
  46:source\bsw\labboard/buttons.c **** 
  47:source\bsw\labboard/buttons.c **** 
  48:source\bsw\labboard/buttons.c **** 
  49:source\bsw\labboard/buttons.c **** /*****************************************************************************/
  50:source\bsw\labboard/buttons.c **** /* Local function prototypes ('static')                                      */
  51:source\bsw\labboard/buttons.c **** /*****************************************************************************/
  52:source\bsw\labboard/buttons.c **** 
  53:source\bsw\labboard/buttons.c **** 
  54:source\bsw\labboard/buttons.c **** /*****************************************************************************/
  55:source\bsw\labboard/buttons.c **** /* Function implementation - global ('extern') and local ('static')          */
  56:source\bsw\labboard/buttons.c **** /*****************************************************************************/
  57:source\bsw\labboard/buttons.c **** 
  58:source\bsw\labboard/buttons.c **** /**
  59:source\bsw\labboard/buttons.c ****  * <Description>
  60:source\bsw\labboard/buttons.c ****  * \param <first para>
  61:source\bsw\labboard/buttons.c ****  * \return <return value>
  62:source\bsw\labboard/buttons.c ****  */
  63:source\bsw\labboard/buttons.c **** //RC_t FILE_function(type para)
  64:source\bsw\labboard/buttons.c **** 
  65:source\bsw\labboard/buttons.c **** RC_t buttonInit() {
  28              		.loc 1 65 0
  29              		.cfi_startproc
  30              		@ args = 0, pretend = 0, frame = 0
  31              		@ frame_needed = 0, uses_anonymous_args = 0
  32 0000 08B5     		push	{r3, lr}
  33              		.cfi_def_cfa_offset 8
  34              		.cfi_offset 3, -8
  35              		.cfi_offset 14, -4
  66:source\bsw\labboard/buttons.c ****     // Implementation of the function
  67:source\bsw\labboard/buttons.c ****     srand (time(NULL));
  36              		.loc 1 67 0
  37 0002 0020     		movs	r0, #0
  38 0004 FFF7FEFF 		bl	time
  39              	.LVL0:
  40 0008 FFF7FEFF 		bl	srand
  41              	.LVL1:
  68:source\bsw\labboard/buttons.c ****     
  69:source\bsw\labboard/buttons.c ****     if((Button_1_Read() == 1) || (Button_2_Read() == 1)){
  42              		.loc 1 69 0
  43 000c FFF7FEFF 		bl	Button_1_Read
  44              	.LVL2:
  45 0010 0128     		cmp	r0, #1
ARM GAS  C:\Users\abhim\AppData\Local\Temp\cciUZgx2.s 			page 3


  46 0012 05D0     		beq	.L3
  47              		.loc 1 69 0 is_stmt 0 discriminator 1
  48 0014 FFF7FEFF 		bl	Button_2_Read
  49              	.LVL3:
  50 0018 0128     		cmp	r0, #1
  51 001a 04D0     		beq	.L4
  70:source\bsw\labboard/buttons.c ****         return RC_ERROR;
  71:source\bsw\labboard/buttons.c ****     }else{
  72:source\bsw\labboard/buttons.c ****     return RC_SUCCESS;
  52              		.loc 1 72 0 is_stmt 1
  53 001c 0020     		movs	r0, #0
  54 001e 08BD     		pop	{r3, pc}
  55              	.L3:
  70:source\bsw\labboard/buttons.c ****         return RC_ERROR;
  56              		.loc 1 70 0
  57 0020 4FF0FF30 		mov	r0, #-1
  58 0024 08BD     		pop	{r3, pc}
  59              	.L4:
  60 0026 4FF0FF30 		mov	r0, #-1
  73:source\bsw\labboard/buttons.c ****     }
  74:source\bsw\labboard/buttons.c **** }
  61              		.loc 1 74 0
  62 002a 08BD     		pop	{r3, pc}
  63              		.cfi_endproc
  64              	.LFE111:
  65              		.size	buttonInit, .-buttonInit
  66              		.section	.text.BTN_read,"ax",%progbits
  67              		.align	2
  68              		.global	BTN_read
  69              		.thumb
  70              		.thumb_func
  71              		.type	BTN_read, %function
  72              	BTN_read:
  73              	.LFB112:
  75:source\bsw\labboard/buttons.c **** 
  76:source\bsw\labboard/buttons.c **** unsigned short BTN_read(BTN_t *const me)
  77:source\bsw\labboard/buttons.c **** {
  74              		.loc 1 77 0
  75              		.cfi_startproc
  76              		@ args = 0, pretend = 0, frame = 0
  77              		@ frame_needed = 0, uses_anonymous_args = 0
  78              	.LVL4:
  79 0000 08B5     		push	{r3, lr}
  80              		.cfi_def_cfa_offset 8
  81              		.cfi_offset 3, -8
  82              		.cfi_offset 14, -4
  78:source\bsw\labboard/buttons.c ****     if (0 == me->m_read) return BTN_UNDEF;
  83              		.loc 1 78 0
  84 0002 4368     		ldr	r3, [r0, #4]
  85 0004 13B1     		cbz	r3, .L8
  79:source\bsw\labboard/buttons.c ****     
  80:source\bsw\labboard/buttons.c ****     //Read the port
  81:source\bsw\labboard/buttons.c ****     uint8_t curState = me->m_read();
  86              		.loc 1 81 0
  87 0006 9847     		blx	r3
  88              	.LVL5:
  82:source\bsw\labboard/buttons.c ****     
ARM GAS  C:\Users\abhim\AppData\Local\Temp\cciUZgx2.s 			page 4


  83:source\bsw\labboard/buttons.c ****     return curState;
  89              		.loc 1 83 0
  90 0008 80B2     		uxth	r0, r0
  91              	.LVL6:
  92 000a 08BD     		pop	{r3, pc}
  93              	.LVL7:
  94              	.L8:
  78:source\bsw\labboard/buttons.c ****     
  95              		.loc 1 78 0
  96 000c 0020     		movs	r0, #0
  97              	.LVL8:
  84:source\bsw\labboard/buttons.c ****     
  85:source\bsw\labboard/buttons.c ****  //   BTN_state_t result = BTN_UNDEF;
  86:source\bsw\labboard/buttons.c ****     
  87:source\bsw\labboard/buttons.c **** //    if (1 == curState)
  88:source\bsw\labboard/buttons.c **** //    {
  89:source\bsw\labboard/buttons.c **** //        switch (me->m_prevState)
  90:source\bsw\labboard/buttons.c **** //        {
  91:source\bsw\labboard/buttons.c **** //            case BTN_LOW : 
  92:source\bsw\labboard/buttons.c **** //           // UART_LOG_PutString("AA\r\n");
  93:source\bsw\labboard/buttons.c **** //                result = BTN_RISING; 
  94:source\bsw\labboard/buttons.c **** //                break;
  95:source\bsw\labboard/buttons.c **** //            case BTN_HIGH : 
  96:source\bsw\labboard/buttons.c **** //            //   UART_LOG_PutString("BB\r\n");
  97:source\bsw\labboard/buttons.c **** //                result = BTN_HIGH;
  98:source\bsw\labboard/buttons.c **** //                break;
  99:source\bsw\labboard/buttons.c **** //            default: 
 100:source\bsw\labboard/buttons.c **** //            //   UART_LOG_PutString("CC\r\n");
 101:source\bsw\labboard/buttons.c **** //                result = BTN_UNDEF;
 102:source\bsw\labboard/buttons.c **** //                break;
 103:source\bsw\labboard/buttons.c **** //        }
 104:source\bsw\labboard/buttons.c **** //        
 105:source\bsw\labboard/buttons.c **** //        //Memorize current state
 106:source\bsw\labboard/buttons.c **** //        me->m_prevState = BTN_HIGH;
 107:source\bsw\labboard/buttons.c **** //            
 108:source\bsw\labboard/buttons.c **** //    }
 109:source\bsw\labboard/buttons.c **** //    else
 110:source\bsw\labboard/buttons.c **** //    {
 111:source\bsw\labboard/buttons.c **** //        switch (me->m_prevState)
 112:source\bsw\labboard/buttons.c **** //        {
 113:source\bsw\labboard/buttons.c **** //            case BTN_LOW : 
 114:source\bsw\labboard/buttons.c **** //            //   UART_LOG_PutString("AA\r\n");
 115:source\bsw\labboard/buttons.c **** //                result = BTN_LOW; 
 116:source\bsw\labboard/buttons.c **** //                break;
 117:source\bsw\labboard/buttons.c **** //            case BTN_HIGH : 
 118:source\bsw\labboard/buttons.c **** //           // UART_LOG_PutString("BB\r\n");    
 119:source\bsw\labboard/buttons.c **** //            result = BTN_FALLING;
 120:source\bsw\labboard/buttons.c **** //                break;
 121:source\bsw\labboard/buttons.c **** //            default: 
 122:source\bsw\labboard/buttons.c **** //           // UART_LOG_PutString("CC\r\n");    
 123:source\bsw\labboard/buttons.c **** //                result = BTN_UNDEF;
 124:source\bsw\labboard/buttons.c **** //                break;
 125:source\bsw\labboard/buttons.c **** //        }
 126:source\bsw\labboard/buttons.c **** //        
 127:source\bsw\labboard/buttons.c **** //        //Memorize current state
 128:source\bsw\labboard/buttons.c **** //        me->m_prevState = BTN_LOW;        
 129:source\bsw\labboard/buttons.c **** //    }
ARM GAS  C:\Users\abhim\AppData\Local\Temp\cciUZgx2.s 			page 5


 130:source\bsw\labboard/buttons.c **** 
 131:source\bsw\labboard/buttons.c ****     //return result;
 132:source\bsw\labboard/buttons.c **** }
  98              		.loc 1 132 0
  99 000e 08BD     		pop	{r3, pc}
 100              		.cfi_endproc
 101              	.LFE112:
 102              		.size	BTN_read, .-BTN_read
 103              		.comm	systickCounter,4,4
 104              		.comm	game,8,4
 105              		.text
 106              	.Letext0:
 107              		.file 2 "c:\\program files (x86)\\cypress\\psoc creator\\4.4\\psoc creator\\import\\gnu\\arm\\5.4.
 108              		.file 3 "c:\\program files (x86)\\cypress\\psoc creator\\4.4\\psoc creator\\import\\gnu\\arm\\5.4.
 109              		.file 4 "Generated_Source\\PSoC5/ErikaOS_1_common_ee_types.inc"
 110              		.file 5 "Generated_Source\\PSoC5/ErikaOS_1_cortex_mx_ee_cpu.inc"
 111              		.file 6 ".\\source\\bsw/global.h"
 112              		.file 7 "source\\bsw\\labboard\\game.h"
 113              		.file 8 "source\\bsw\\labboard\\buttons.h"
 114              		.file 9 "Generated_Source\\PSoC5/ErikaOS_1_ee_oo_intfunc.inc"
 115              		.file 10 "Generated_Source\\PSoC5/ErikaOS_1_cortex_mx_ee_context.inc"
 116              		.file 11 "Generated_Source\\PSoC5/ErikaOS_1_common_ee_primitives.inc"
 117              		.file 12 "Generated_Source\\PSoC5/core_cm3.h"
 118              		.file 13 "c:\\program files (x86)\\cypress\\psoc creator\\4.4\\psoc creator\\import\\gnu\\arm\\5.4
 119              		.file 14 "c:\\program files (x86)\\cypress\\psoc creator\\4.4\\psoc creator\\import\\gnu\\arm\\5.4
 120              		.file 15 "Generated_Source\\PSoC5/Button_1.h"
 121              		.file 16 "Generated_Source\\PSoC5/Button_2.h"