ARM GAS  C:\Users\abhim\AppData\Local\Temp\ccbpAwgu.s 			page 1


   1              		.syntax unified
   2              		.cpu cortex-m3
   3              		.fpu softvfp
   4              		.eabi_attribute 20, 1
   5              		.eabi_attribute 21, 1
   6              		.eabi_attribute 23, 3
   7              		.eabi_attribute 24, 1
   8              		.eabi_attribute 25, 1
   9              		.eabi_attribute 26, 1
  10              		.eabi_attribute 30, 1
  11              		.eabi_attribute 34, 1
  12              		.eabi_attribute 18, 4
  13              		.thumb
  14              		.syntax unified
  15              		.file	"control.c"
  16              		.text
  17              	.Ltext0:
  18              		.cfi_sections	.debug_frame
  19              		.section	.text.randomTimeGenerate,"ax",%progbits
  20              		.align	2
  21              		.global	randomTimeGenerate
  22              		.thumb
  23              		.thumb_func
  24              		.type	randomTimeGenerate, %function
  25              	randomTimeGenerate:
  26              	.LFB111:
  27              		.file 1 "source\\asw\\control.c"
   1:source\asw/control.c **** /**
   2:source\asw/control.c **** * \file <filename>
   3:source\asw/control.c **** * \author <author-name>
   4:source\asw/control.c **** * \date <date>
   5:source\asw/control.c **** *
   6:source\asw/control.c **** * \brief <Symbolic File name>
   7:source\asw/control.c **** *
   8:source\asw/control.c **** * \copyright Copyright ©2016
   9:source\asw/control.c **** * Department of electrical engineering and information technology, Hochschule Darmstadt - Universit
  10:source\asw/control.c **** * Permission to use, copy, modify, and distribute this software and its documentation for education
  11:source\asw/control.c **** * (unless permitted by h_da) and official h_da projects, is hereby granted for enrolled students of
  12:source\asw/control.c **** * this paragraph and the following paragraph appear in all copies, modifications, and distributions
  13:source\asw/control.c **** * Contact Prof.Dr.-Ing. Peter Fromm, peter.fromm@h-da.de, Birkenweg 8 64295 Darmstadt - GERMANY for
  14:source\asw/control.c **** *
  15:source\asw/control.c **** * \warning This software is a PROTOTYPE version and is not designed or intended for use in producti
  16:source\asw/control.c **** * The user represents and warrants that it will NOT use or redistribute the Software for such purpo
  17:source\asw/control.c **** * This prototype is for research purposes only. This software is provided "AS IS," without a warran
  18:source\asw/control.c **** */
  19:source\asw/control.c **** 
  20:source\asw/control.c **** /*****************************************************************************/
  21:source\asw/control.c **** /* Include files                                                             */
  22:source\asw/control.c **** /*****************************************************************************/
  23:source\asw/control.c **** 
  24:source\asw/control.c **** #include "control.h"
  25:source\asw/control.c **** 
  26:source\asw/control.c **** /*****************************************************************************/
  27:source\asw/control.c **** /* Local pre-processor symbols/macros ('#define')                            */
  28:source\asw/control.c **** /*****************************************************************************/
  29:source\asw/control.c **** 
  30:source\asw/control.c **** /*****************************************************************************/
ARM GAS  C:\Users\abhim\AppData\Local\Temp\ccbpAwgu.s 			page 2


  31:source\asw/control.c **** /* Global variable definitions (declared in header file with 'extern')       */
  32:source\asw/control.c **** /*****************************************************************************/
  33:source\asw/control.c **** 
  34:source\asw/control.c **** typedef enum
  35:source\asw/control.c **** {
  36:source\asw/control.c ****     CTRL_STATE_WAIT_BTNPRESS,
  37:source\asw/control.c ****     CTRL_STATE_WAIT_TIMEOUT,
  38:source\asw/control.c ****     CTRL_STATE_USERACTION,
  39:source\asw/control.c ****     CTRL_STATE_GAMEENDS
  40:source\asw/control.c **** } CTRL_state_t;
  41:source\asw/control.c **** 
  42:source\asw/control.c **** static CTRL_state_t CTRL_state = CTRL_STATE_WAIT_BTNPRESS;
  43:source\asw/control.c **** 
  44:source\asw/control.c **** /*****************************************************************************/
  45:source\asw/control.c **** /* Local type definitions ('typedef')                                        */
  46:source\asw/control.c **** /*****************************************************************************/
  47:source\asw/control.c **** 
  48:source\asw/control.c **** /*****************************************************************************/
  49:source\asw/control.c **** /* Local variable definitions ('static')                                     */
  50:source\asw/control.c **** /*****************************************************************************/
  51:source\asw/control.c **** 
  52:source\asw/control.c **** static unsigned short randomNum = 0;
  53:source\asw/control.c **** unsigned short buttonFlag = 0;
  54:source\asw/control.c **** unsigned short time_count = 0;
  55:source\asw/control.c **** static unsigned short noOfTurns = 0;
  56:source\asw/control.c **** 
  57:source\asw/control.c **** /*****************************************************************************/
  58:source\asw/control.c **** /* Local function prototypes ('static')                                      */
  59:source\asw/control.c **** /*****************************************************************************/
  60:source\asw/control.c **** 
  61:source\asw/control.c **** 
  62:source\asw/control.c **** /*****************************************************************************/
  63:source\asw/control.c **** /* Function implementation - global ('extern') and local ('static')          */
  64:source\asw/control.c **** /*****************************************************************************/
  65:source\asw/control.c **** 
  66:source\asw/control.c **** /**
  67:source\asw/control.c ****  * <Description>
  68:source\asw/control.c ****  * \param <first para>
  69:source\asw/control.c ****  * \return <return value>
  70:source\asw/control.c ****  */
  71:source\asw/control.c **** unsigned short randomTimeGenerate(){
  28              		.loc 1 71 0
  29              		.cfi_startproc
  30              		@ args = 0, pretend = 0, frame = 0
  31              		@ frame_needed = 0, uses_anonymous_args = 0
  32 0000 08B5     		push	{r3, lr}
  33              		.cfi_def_cfa_offset 8
  34              		.cfi_offset 3, -8
  35              		.cfi_offset 14, -4
  72:source\asw/control.c ****     unsigned short randomTimeMs = (rand()%3 +1)*1000;
  36              		.loc 1 72 0
  37 0002 FFF7FEFF 		bl	rand
  38              	.LVL0:
  39 0006 084B     		ldr	r3, .L3
  40 0008 83FB0023 		smull	r2, r3, r3, r0
  41 000c A3EBE073 		sub	r3, r3, r0, asr #31
  42 0010 03EB4303 		add	r3, r3, r3, lsl #1
ARM GAS  C:\Users\abhim\AppData\Local\Temp\ccbpAwgu.s 			page 3


  43 0014 C31A     		subs	r3, r0, r3
  44 0016 0133     		adds	r3, r3, #1
  45 0018 C3EB4312 		rsb	r2, r3, r3, lsl #5
  46 001c 03EB8203 		add	r3, r3, r2, lsl #2
  47 0020 D800     		lsls	r0, r3, #3
  48 0022 80B2     		uxth	r0, r0
  49              	.LVL1:
  73:source\asw/control.c ****     return randomTimeMs;
  74:source\asw/control.c **** }
  50              		.loc 1 74 0
  51 0024 08BD     		pop	{r3, pc}
  52              	.L4:
  53 0026 00BF     		.align	2
  54              	.L3:
  55 0028 56555555 		.word	1431655766
  56              		.cfi_endproc
  57              	.LFE111:
  58              		.size	randomTimeGenerate, .-randomTimeGenerate
  59              		.section	.text.randomNumGenerate,"ax",%progbits
  60              		.align	2
  61              		.global	randomNumGenerate
  62              		.thumb
  63              		.thumb_func
  64              		.type	randomNumGenerate, %function
  65              	randomNumGenerate:
  66              	.LFB112:
  75:source\asw/control.c **** 
  76:source\asw/control.c **** RC_t randomNumGenerate(){
  67              		.loc 1 76 0
  68              		.cfi_startproc
  69              		@ args = 0, pretend = 0, frame = 0
  70              		@ frame_needed = 0, uses_anonymous_args = 0
  71 0000 10B5     		push	{r4, lr}
  72              		.cfi_def_cfa_offset 8
  73              		.cfi_offset 4, -8
  74              		.cfi_offset 14, -4
  77:source\asw/control.c ****     Pin_SelA_Write(1);
  75              		.loc 1 77 0
  76 0002 0120     		movs	r0, #1
  77 0004 FFF7FEFF 		bl	Pin_SelA_Write
  78              	.LVL2:
  78:source\asw/control.c ****     char buffer[128];
  79:source\asw/control.c ****     uint8_t bitPattern = 0b00111111;
  80:source\asw/control.c ****     sevenSegmentDisplay(bitPattern);
  79              		.loc 1 80 0
  80 0008 3F20     		movs	r0, #63
  81 000a FFF7FEFF 		bl	sevenSegmentDisplay
  82              	.LVL3:
  81:source\asw/control.c ****     
  82:source\asw/control.c ****     randomNum = (rand()%2 +1);
  83              		.loc 1 82 0
  84 000e FFF7FEFF 		bl	rand
  85              	.LVL4:
  86 0012 174B     		ldr	r3, .L11
  87 0014 1840     		ands	r0, r0, r3
  88 0016 03D5     		bpl	.L6
  89 0018 0138     		subs	r0, r0, #1
ARM GAS  C:\Users\abhim\AppData\Local\Temp\ccbpAwgu.s 			page 4


  90 001a 60F00100 		orn	r0, r0, #1
  91 001e 0130     		adds	r0, r0, #1
  92              	.L6:
  93 0020 144C     		ldr	r4, .L11+4
  94 0022 0130     		adds	r0, r0, #1
  95 0024 2080     		strh	r0, [r4]	@ movhi
  83:source\asw/control.c ****     
  84:source\asw/control.c ****     Pin_SelA_Write(0);
  96              		.loc 1 84 0
  97 0026 0020     		movs	r0, #0
  98 0028 FFF7FEFF 		bl	Pin_SelA_Write
  99              	.LVL5:
  85:source\asw/control.c ****     
  86:source\asw/control.c ****     if(randomNum == 1){
 100              		.loc 1 86 0
 101 002c 2388     		ldrh	r3, [r4]
 102 002e 012B     		cmp	r3, #1
 103 0030 0CD1     		bne	.L7
 104              	.LVL6:
  87:source\asw/control.c ****         bitPattern = 0b00000110;
  88:source\asw/control.c ****         sevenSegmentDisplay(bitPattern);
 105              		.loc 1 88 0
 106 0032 0620     		movs	r0, #6
 107 0034 FFF7FEFF 		bl	sevenSegmentDisplay
 108              	.LVL7:
  89:source\asw/control.c ****         time_count= 0;
 109              		.loc 1 89 0
 110 0038 0024     		movs	r4, #0
 111 003a 0E4B     		ldr	r3, .L11+4
 112 003c 5C80     		strh	r4, [r3, #2]	@ movhi
  90:source\asw/control.c ****         SetRelAlarm(alrm_Timer,1,1);      
 113              		.loc 1 90 0
 114 003e 0122     		movs	r2, #1
 115 0040 1146     		mov	r1, r2
 116 0042 0220     		movs	r0, #2
 117 0044 FFF7FEFF 		bl	EE_oo_SetRelAlarm
 118              	.LVL8:
  91:source\asw/control.c ****         return RC_SUCCESS;
 119              		.loc 1 91 0
 120 0048 2046     		mov	r0, r4
 121 004a 10BD     		pop	{r4, pc}
 122              	.LVL9:
 123              	.L7:
  92:source\asw/control.c ****     }else if(randomNum == 2){
 124              		.loc 1 92 0
 125 004c 022B     		cmp	r3, #2
 126 004e 0CD1     		bne	.L9
 127              	.LVL10:
  93:source\asw/control.c ****         bitPattern = 0b01011011;
  94:source\asw/control.c ****         sevenSegmentDisplay(bitPattern);
 128              		.loc 1 94 0
 129 0050 5B20     		movs	r0, #91
 130 0052 FFF7FEFF 		bl	sevenSegmentDisplay
 131              	.LVL11:
  95:source\asw/control.c ****         time_count= 0;
 132              		.loc 1 95 0
 133 0056 0024     		movs	r4, #0
ARM GAS  C:\Users\abhim\AppData\Local\Temp\ccbpAwgu.s 			page 5


 134 0058 064B     		ldr	r3, .L11+4
 135 005a 5C80     		strh	r4, [r3, #2]	@ movhi
  96:source\asw/control.c ****         SetRelAlarm(alrm_Timer,1,1);
 136              		.loc 1 96 0
 137 005c 0122     		movs	r2, #1
 138 005e 1146     		mov	r1, r2
 139 0060 0220     		movs	r0, #2
 140 0062 FFF7FEFF 		bl	EE_oo_SetRelAlarm
 141              	.LVL12:
  97:source\asw/control.c ****         return RC_SUCCESS;
 142              		.loc 1 97 0
 143 0066 2046     		mov	r0, r4
 144 0068 10BD     		pop	{r4, pc}
 145              	.LVL13:
 146              	.L9:
  98:source\asw/control.c ****     }else{
  99:source\asw/control.c ****         return RC_ERROR;
 147              		.loc 1 99 0
 148 006a 4FF0FF30 		mov	r0, #-1
 100:source\asw/control.c ****     }
 101:source\asw/control.c **** }
 149              		.loc 1 101 0
 150 006e 10BD     		pop	{r4, pc}
 151              	.L12:
 152              		.align	2
 153              	.L11:
 154 0070 01000080 		.word	-2147483647
 155 0074 00000000 		.word	.LANCHOR0
 156              		.cfi_endproc
 157              	.LFE112:
 158              		.size	randomNumGenerate, .-randomNumGenerate
 159              		.section	.text.validateBtnPress1,"ax",%progbits
 160              		.align	2
 161              		.global	validateBtnPress1
 162              		.thumb
 163              		.thumb_func
 164              		.type	validateBtnPress1, %function
 165              	validateBtnPress1:
 166              	.LFB114:
 102:source\asw/control.c **** 
 103:source\asw/control.c **** void CTRL_processEvent1(CTRL_event_t ev)
 104:source\asw/control.c **** { 
 105:source\asw/control.c ****     char buffer[64];
 106:source\asw/control.c ****     unsigned short randomTime;
 107:source\asw/control.c ****     switch (CTRL_state)
 108:source\asw/control.c ****     {
 109:source\asw/control.c ****         case CTRL_STATE_WAIT_BTNPRESS:
 110:source\asw/control.c ****             if (ev == EV_button1Press)
 111:source\asw/control.c ****             {     
 112:source\asw/control.c ****                if(noOfTurns<10){
 113:source\asw/control.c ****                     randomTime = randomTimeGenerate();
 114:source\asw/control.c ****                     SetRelAlarm(alrm_randomTime, randomTime,0);
 115:source\asw/control.c ****                     CTRL_state = CTRL_STATE_USERACTION;
 116:source\asw/control.c ****                 }
 117:source\asw/control.c ****             }
 118:source\asw/control.c ****             else if (ev == EV_button2Press)
 119:source\asw/control.c ****             {  
ARM GAS  C:\Users\abhim\AppData\Local\Temp\ccbpAwgu.s 			page 6


 120:source\asw/control.c ****                 if(noOfTurns<10){
 121:source\asw/control.c ****                     randomTime = randomTimeGenerate();
 122:source\asw/control.c ****                     SetRelAlarm(alrm_randomTime, randomTime,0);
 123:source\asw/control.c ****                     CTRL_state = CTRL_STATE_USERACTION;
 124:source\asw/control.c ****                 }
 125:source\asw/control.c ****             }
 126:source\asw/control.c ****             else
 127:source\asw/control.c ****             {
 128:source\asw/control.c ****                     //nothing
 129:source\asw/control.c ****             }
 130:source\asw/control.c ****             break;         
 131:source\asw/control.c ****         case  CTRL_STATE_USERACTION:
 132:source\asw/control.c ****               if (ev == EV_button2Press)
 133:source\asw/control.c ****             {
 134:source\asw/control.c ****                 validateBtnPress1(ev);
 135:source\asw/control.c ****             }
 136:source\asw/control.c ****             else if (ev == EV_button1Press)
 137:source\asw/control.c ****             {
 138:source\asw/control.c ****                  validateBtnPress1(ev);
 139:source\asw/control.c ****             }
 140:source\asw/control.c ****             else
 141:source\asw/control.c ****             {
 142:source\asw/control.c ****                 //nothing
 143:source\asw/control.c ****             }
 144:source\asw/control.c ****             break;
 145:source\asw/control.c ****         case CTRL_STATE_GAMEENDS:
 146:source\asw/control.c ****             CancelAlarm(alrm_50ms);
 147:source\asw/control.c ****             sprintf(buffer+strlen(buffer),"%s\r\n","Game Ends");
 148:source\asw/control.c ****             sprintf(buffer+strlen(buffer),"Correct buttons pressed = %d\r\n",game.crctBtnPress);
 149:source\asw/control.c ****             sprintf(buffer+strlen(buffer),"Total time = %dms \r\n",game.totalTime);
 150:source\asw/control.c ****             float totalTime = (float)game.totalTime/10;
 151:source\asw/control.c ****             sprintf(buffer + strlen(buffer), "Average time = %d.%06d ms \r\n",(int)totalTime, (int)
 152:source\asw/control.c ****             UART_LOG_PutString(buffer);
 153:source\asw/control.c ****             
 154:source\asw/control.c ****             
 155:source\asw/control.c ****             LED_init();
 156:source\asw/control.c ****             
 157:source\asw/control.c ****             stopFaderGlower();
 158:source\asw/control.c ****             
 159:source\asw/control.c ****             sevenSegmentInit(); 
 160:source\asw/control.c ****             SetEvent(tsk_control,ev_resetGame);
 161:source\asw/control.c ****             CTRL_state = CTRL_STATE_WAIT_BTNPRESS;                  
 162:source\asw/control.c ****         default:
 163:source\asw/control.c ****             break;  
 164:source\asw/control.c ****     }
 165:source\asw/control.c ****     
 166:source\asw/control.c **** }
 167:source\asw/control.c **** 
 168:source\asw/control.c **** void validateBtnPress1(CTRL_event_t ev){
 167              		.loc 1 168 0
 168              		.cfi_startproc
 169              		@ args = 0, pretend = 0, frame = 128
 170              		@ frame_needed = 0, uses_anonymous_args = 0
 171              	.LVL14:
 172 0000 70B5     		push	{r4, r5, r6, lr}
 173              		.cfi_def_cfa_offset 16
 174              		.cfi_offset 4, -16
ARM GAS  C:\Users\abhim\AppData\Local\Temp\ccbpAwgu.s 			page 7


 175              		.cfi_offset 5, -12
 176              		.cfi_offset 6, -8
 177              		.cfi_offset 14, -4
 178 0002 A0B0     		sub	sp, sp, #128
 179              		.cfi_def_cfa_offset 144
 180 0004 0446     		mov	r4, r0
 169:source\asw/control.c ****     char buffer[128] = {0};
 181              		.loc 1 169 0
 182 0006 8022     		movs	r2, #128
 183 0008 0021     		movs	r1, #0
 184 000a 6846     		mov	r0, sp
 185              	.LVL15:
 186 000c FFF7FEFF 		bl	memset
 187              	.LVL16:
 170:source\asw/control.c ****     if(noOfTurns < 10){
 188              		.loc 1 170 0
 189 0010 984B     		ldr	r3, .L26
 190 0012 9B88     		ldrh	r3, [r3, #4]
 191 0014 092B     		cmp	r3, #9
 192 0016 00F22A81 		bhi	.L13
 171:source\asw/control.c ****         if(time_count<1000){
 193              		.loc 1 171 0
 194 001a 964B     		ldr	r3, .L26
 195 001c 5B88     		ldrh	r3, [r3, #2]
 196 001e B3F57A7F 		cmp	r3, #1000
 197 0022 80F0F780 		bcs	.L15
 172:source\asw/control.c ****             switch(ev){
 198              		.loc 1 172 0
 199 0026 082C     		cmp	r4, #8
 200 0028 02D0     		beq	.L16
 201 002a 092C     		cmp	r4, #9
 202 002c 79D0     		beq	.L17
 203 002e 1EE1     		b	.L13
 204              	.L16:
 173:source\asw/control.c ****              case EV_button1Press:
 174:source\asw/control.c ****                 if(randomNum == 2){
 205              		.loc 1 174 0
 206 0030 904B     		ldr	r3, .L26
 207 0032 1B88     		ldrh	r3, [r3]
 208 0034 022B     		cmp	r3, #2
 209 0036 46D1     		bne	.L18
 175:source\asw/control.c ****                     CancelAlarm(alrm_Timer);
 210              		.loc 1 175 0
 211 0038 0220     		movs	r0, #2
 212 003a FFF7FEFF 		bl	EE_oo_CancelAlarm
 213              	.LVL17:
 176:source\asw/control.c ****                     noOfTurns++;
 214              		.loc 1 176 0
 215 003e 8D4D     		ldr	r5, .L26
 216 0040 AC88     		ldrh	r4, [r5, #4]
 217 0042 0134     		adds	r4, r4, #1
 218 0044 A4B2     		uxth	r4, r4
 219 0046 AC80     		strh	r4, [r5, #4]	@ movhi
 177:source\asw/control.c ****                     sprintf(buffer+strlen(buffer),"Round number %d \r\n", noOfTurns);
 220              		.loc 1 177 0
 221 0048 6846     		mov	r0, sp
 222 004a FFF7FEFF 		bl	strlen
ARM GAS  C:\Users\abhim\AppData\Local\Temp\ccbpAwgu.s 			page 8


 223              	.LVL18:
 224 004e 2246     		mov	r2, r4
 225 0050 8949     		ldr	r1, .L26+4
 226 0052 6844     		add	r0, r0, sp
 227 0054 FFF7FEFF 		bl	sprintf
 228              	.LVL19:
 178:source\asw/control.c ****                     sprintf(buffer + strlen(buffer), "%s \r\n", "Great - correct button pressed");
 229              		.loc 1 178 0
 230 0058 6846     		mov	r0, sp
 231 005a FFF7FEFF 		bl	strlen
 232              	.LVL20:
 233 005e 874A     		ldr	r2, .L26+8
 234 0060 8749     		ldr	r1, .L26+12
 235 0062 6844     		add	r0, r0, sp
 236 0064 FFF7FEFF 		bl	sprintf
 237              	.LVL21:
 179:source\asw/control.c ****                     game.totalTime+=time_count;
 238              		.loc 1 179 0
 239 0068 6C88     		ldrh	r4, [r5, #2]
 240 006a 864E     		ldr	r6, .L26+16
 241 006c 3368     		ldr	r3, [r6]
 242 006e 2344     		add	r3, r3, r4
 243 0070 3360     		str	r3, [r6]
 180:source\asw/control.c ****                     sprintf(buffer + strlen(buffer), "Reaction time :%d ms \r\n", time_count);
 244              		.loc 1 180 0
 245 0072 6846     		mov	r0, sp
 246 0074 FFF7FEFF 		bl	strlen
 247              	.LVL22:
 248 0078 2246     		mov	r2, r4
 249 007a 8349     		ldr	r1, .L26+20
 250 007c 6844     		add	r0, r0, sp
 251 007e FFF7FEFF 		bl	sprintf
 252              	.LVL23:
 181:source\asw/control.c ****                    
 182:source\asw/control.c ****                     game.crctBtnPress++;
 253              		.loc 1 182 0
 254 0082 B488     		ldrh	r4, [r6, #4]
 255 0084 0134     		adds	r4, r4, #1
 256 0086 A4B2     		uxth	r4, r4
 257 0088 B480     		strh	r4, [r6, #4]	@ movhi
 183:source\asw/control.c ****  
 184:source\asw/control.c ****                     sprintf(buffer + strlen(buffer),"Correct buttons press = %d \r\n", game.crctBtn
 258              		.loc 1 184 0
 259 008a 6846     		mov	r0, sp
 260 008c FFF7FEFF 		bl	strlen
 261              	.LVL24:
 262 0090 2246     		mov	r2, r4
 263 0092 7E49     		ldr	r1, .L26+24
 264 0094 6844     		add	r0, r0, sp
 265 0096 FFF7FEFF 		bl	sprintf
 266              	.LVL25:
 185:source\asw/control.c ****                     UART_LOG_PutString(buffer);
 267              		.loc 1 185 0
 268 009a 6846     		mov	r0, sp
 269 009c FFF7FEFF 		bl	UART_LOG_PutString
 270              	.LVL26:
 186:source\asw/control.c ****                     sevenSegmentInit(); 
ARM GAS  C:\Users\abhim\AppData\Local\Temp\ccbpAwgu.s 			page 9


 271              		.loc 1 186 0
 272 00a0 FFF7FEFF 		bl	sevenSegmentInit
 273              	.LVL27:
 187:source\asw/control.c ****                     
 188:source\asw/control.c ****                     if(noOfTurns == 10){
 274              		.loc 1 188 0
 275 00a4 AB88     		ldrh	r3, [r5, #4]
 276 00a6 0A2B     		cmp	r3, #10
 277 00a8 05D1     		bne	.L19
 189:source\asw/control.c ****                        CTRL_state = CTRL_STATE_GAMEENDS;
 278              		.loc 1 189 0
 279 00aa 0322     		movs	r2, #3
 280 00ac AA71     		strb	r2, [r5, #6]
 190:source\asw/control.c ****                        CTRL_processEvent1(EV_button1Press);
 281              		.loc 1 190 0
 282 00ae 0820     		movs	r0, #8
 283 00b0 FFF7FEFF 		bl	CTRL_processEvent1
 284              	.LVL28:
 285 00b4 DBE0     		b	.L13
 286              	.L19:
 191:source\asw/control.c ****                     }else{
 192:source\asw/control.c ****                        SetEvent(tsk_control,ev_resetGame);
 287              		.loc 1 192 0
 288 00b6 0821     		movs	r1, #8
 289 00b8 0220     		movs	r0, #2
 290 00ba FFF7FEFF 		bl	EE_oo_SetEvent
 291              	.LVL29:
 193:source\asw/control.c ****                        CTRL_state = CTRL_STATE_WAIT_BTNPRESS; 
 292              		.loc 1 193 0
 293 00be 0022     		movs	r2, #0
 294 00c0 6C4B     		ldr	r3, .L26
 295 00c2 9A71     		strb	r2, [r3, #6]
 296 00c4 D3E0     		b	.L13
 297              	.L18:
 194:source\asw/control.c ****                     }
 195:source\asw/control.c ****                 }else{
 196:source\asw/control.c ****                     CancelAlarm(alrm_Timer);
 298              		.loc 1 196 0
 299 00c6 0220     		movs	r0, #2
 300 00c8 FFF7FEFF 		bl	EE_oo_CancelAlarm
 301              	.LVL30:
 197:source\asw/control.c ****                     noOfTurns++;
 302              		.loc 1 197 0
 303 00cc 694D     		ldr	r5, .L26
 304 00ce AC88     		ldrh	r4, [r5, #4]
 305 00d0 0134     		adds	r4, r4, #1
 306 00d2 A4B2     		uxth	r4, r4
 307 00d4 AC80     		strh	r4, [r5, #4]	@ movhi
 198:source\asw/control.c ****                     
 199:source\asw/control.c ****                     sprintf(buffer+strlen(buffer),"Round number %d \r\n", noOfTurns);
 308              		.loc 1 199 0
 309 00d6 6846     		mov	r0, sp
 310 00d8 FFF7FEFF 		bl	strlen
 311              	.LVL31:
 312 00dc 2246     		mov	r2, r4
 313 00de 6649     		ldr	r1, .L26+4
 314 00e0 6844     		add	r0, r0, sp
ARM GAS  C:\Users\abhim\AppData\Local\Temp\ccbpAwgu.s 			page 10


 315 00e2 FFF7FEFF 		bl	sprintf
 316              	.LVL32:
 200:source\asw/control.c ****                     sprintf(buffer+strlen(buffer),"%s \r\n","Incorrect button pressed");
 317              		.loc 1 200 0
 318 00e6 6846     		mov	r0, sp
 319 00e8 FFF7FEFF 		bl	strlen
 320              	.LVL33:
 321 00ec 684A     		ldr	r2, .L26+28
 322 00ee 6449     		ldr	r1, .L26+12
 323 00f0 6844     		add	r0, r0, sp
 324 00f2 FFF7FEFF 		bl	sprintf
 325              	.LVL34:
 201:source\asw/control.c ****                     UART_LOG_PutString(buffer);
 326              		.loc 1 201 0
 327 00f6 6846     		mov	r0, sp
 328 00f8 FFF7FEFF 		bl	UART_LOG_PutString
 329              	.LVL35:
 202:source\asw/control.c ****                     sevenSegmentInit();  
 330              		.loc 1 202 0
 331 00fc FFF7FEFF 		bl	sevenSegmentInit
 332              	.LVL36:
 203:source\asw/control.c ****                     
 204:source\asw/control.c ****                     if(noOfTurns == 10){
 333              		.loc 1 204 0
 334 0100 AB88     		ldrh	r3, [r5, #4]
 335 0102 0A2B     		cmp	r3, #10
 336 0104 05D1     		bne	.L20
 205:source\asw/control.c ****                        CTRL_state = CTRL_STATE_GAMEENDS;
 337              		.loc 1 205 0
 338 0106 0322     		movs	r2, #3
 339 0108 AA71     		strb	r2, [r5, #6]
 206:source\asw/control.c ****                        CTRL_processEvent1(EV_button1Press);
 340              		.loc 1 206 0
 341 010a 0820     		movs	r0, #8
 342 010c FFF7FEFF 		bl	CTRL_processEvent1
 343              	.LVL37:
 344 0110 ADE0     		b	.L13
 345              	.L20:
 207:source\asw/control.c ****                     }else{
 208:source\asw/control.c ****                        SetEvent(tsk_control,ev_resetGame);
 346              		.loc 1 208 0
 347 0112 0821     		movs	r1, #8
 348 0114 0220     		movs	r0, #2
 349 0116 FFF7FEFF 		bl	EE_oo_SetEvent
 350              	.LVL38:
 209:source\asw/control.c ****                        CTRL_state = CTRL_STATE_WAIT_BTNPRESS; 
 351              		.loc 1 209 0
 352 011a 0022     		movs	r2, #0
 353 011c 554B     		ldr	r3, .L26
 354 011e 9A71     		strb	r2, [r3, #6]
 355 0120 A5E0     		b	.L13
 356              	.L17:
 210:source\asw/control.c ****                     }
 211:source\asw/control.c ****                 }   
 212:source\asw/control.c ****                 break;
 213:source\asw/control.c ****              case EV_button2Press:
 214:source\asw/control.c ****                 if(randomNum == 1){
ARM GAS  C:\Users\abhim\AppData\Local\Temp\ccbpAwgu.s 			page 11


 357              		.loc 1 214 0
 358 0122 544B     		ldr	r3, .L26
 359 0124 1B88     		ldrh	r3, [r3]
 360 0126 012B     		cmp	r3, #1
 361 0128 46D1     		bne	.L21
 215:source\asw/control.c ****                     CancelAlarm(alrm_Timer);
 362              		.loc 1 215 0
 363 012a 0220     		movs	r0, #2
 364 012c FFF7FEFF 		bl	EE_oo_CancelAlarm
 365              	.LVL39:
 216:source\asw/control.c ****                     noOfTurns++;
 366              		.loc 1 216 0
 367 0130 504D     		ldr	r5, .L26
 368 0132 AC88     		ldrh	r4, [r5, #4]
 369 0134 0134     		adds	r4, r4, #1
 370 0136 A4B2     		uxth	r4, r4
 371 0138 AC80     		strh	r4, [r5, #4]	@ movhi
 217:source\asw/control.c ****                     
 218:source\asw/control.c ****                     sprintf(buffer+strlen(buffer),"Round number %d \r\n", noOfTurns);
 372              		.loc 1 218 0
 373 013a 6846     		mov	r0, sp
 374 013c FFF7FEFF 		bl	strlen
 375              	.LVL40:
 376 0140 2246     		mov	r2, r4
 377 0142 4D49     		ldr	r1, .L26+4
 378 0144 6844     		add	r0, r0, sp
 379 0146 FFF7FEFF 		bl	sprintf
 380              	.LVL41:
 219:source\asw/control.c ****                     sprintf(buffer + strlen(buffer), "%s \r\n", "Great - correct button pressed");
 381              		.loc 1 219 0
 382 014a 6846     		mov	r0, sp
 383 014c FFF7FEFF 		bl	strlen
 384              	.LVL42:
 385 0150 4A4A     		ldr	r2, .L26+8
 386 0152 4B49     		ldr	r1, .L26+12
 387 0154 6844     		add	r0, r0, sp
 388 0156 FFF7FEFF 		bl	sprintf
 389              	.LVL43:
 220:source\asw/control.c ****                     game.totalTime+=time_count;
 390              		.loc 1 220 0
 391 015a 6C88     		ldrh	r4, [r5, #2]
 392 015c 494E     		ldr	r6, .L26+16
 393 015e 3368     		ldr	r3, [r6]
 394 0160 2344     		add	r3, r3, r4
 395 0162 3360     		str	r3, [r6]
 221:source\asw/control.c ****                     sprintf(buffer + strlen(buffer), "Reaction time :%d ms \r\n", time_count);
 396              		.loc 1 221 0
 397 0164 6846     		mov	r0, sp
 398 0166 FFF7FEFF 		bl	strlen
 399              	.LVL44:
 400 016a 2246     		mov	r2, r4
 401 016c 4649     		ldr	r1, .L26+20
 402 016e 6844     		add	r0, r0, sp
 403 0170 FFF7FEFF 		bl	sprintf
 404              	.LVL45:
 222:source\asw/control.c ****                     
 223:source\asw/control.c ****                     game.crctBtnPress++;
ARM GAS  C:\Users\abhim\AppData\Local\Temp\ccbpAwgu.s 			page 12


 405              		.loc 1 223 0
 406 0174 B488     		ldrh	r4, [r6, #4]
 407 0176 0134     		adds	r4, r4, #1
 408 0178 A4B2     		uxth	r4, r4
 409 017a B480     		strh	r4, [r6, #4]	@ movhi
 224:source\asw/control.c ****                     
 225:source\asw/control.c ****                     sprintf(buffer + strlen(buffer),"Correct buttons press = %d \r\n", game.crctBtn
 410              		.loc 1 225 0
 411 017c 6846     		mov	r0, sp
 412 017e FFF7FEFF 		bl	strlen
 413              	.LVL46:
 414 0182 2246     		mov	r2, r4
 415 0184 4149     		ldr	r1, .L26+24
 416 0186 6844     		add	r0, r0, sp
 417 0188 FFF7FEFF 		bl	sprintf
 418              	.LVL47:
 226:source\asw/control.c ****                     UART_LOG_PutString(buffer);
 419              		.loc 1 226 0
 420 018c 6846     		mov	r0, sp
 421 018e FFF7FEFF 		bl	UART_LOG_PutString
 422              	.LVL48:
 227:source\asw/control.c ****                     sevenSegmentInit();   
 423              		.loc 1 227 0
 424 0192 FFF7FEFF 		bl	sevenSegmentInit
 425              	.LVL49:
 228:source\asw/control.c ****                     
 229:source\asw/control.c ****                     if(noOfTurns == 10){
 426              		.loc 1 229 0
 427 0196 AB88     		ldrh	r3, [r5, #4]
 428 0198 0A2B     		cmp	r3, #10
 429 019a 05D1     		bne	.L22
 230:source\asw/control.c ****                        CTRL_state = CTRL_STATE_GAMEENDS;
 430              		.loc 1 230 0
 431 019c 0322     		movs	r2, #3
 432 019e AA71     		strb	r2, [r5, #6]
 231:source\asw/control.c ****                        CTRL_processEvent1(EV_button1Press);
 433              		.loc 1 231 0
 434 01a0 0820     		movs	r0, #8
 435 01a2 FFF7FEFF 		bl	CTRL_processEvent1
 436              	.LVL50:
 437 01a6 62E0     		b	.L13
 438              	.L22:
 232:source\asw/control.c ****                     }else{
 233:source\asw/control.c ****                        SetEvent(tsk_control,ev_resetGame);
 439              		.loc 1 233 0
 440 01a8 0821     		movs	r1, #8
 441 01aa 0220     		movs	r0, #2
 442 01ac FFF7FEFF 		bl	EE_oo_SetEvent
 443              	.LVL51:
 234:source\asw/control.c ****                        CTRL_state = CTRL_STATE_WAIT_BTNPRESS; 
 444              		.loc 1 234 0
 445 01b0 0022     		movs	r2, #0
 446 01b2 304B     		ldr	r3, .L26
 447 01b4 9A71     		strb	r2, [r3, #6]
 448 01b6 5AE0     		b	.L13
 449              	.L21:
 235:source\asw/control.c ****                     }
ARM GAS  C:\Users\abhim\AppData\Local\Temp\ccbpAwgu.s 			page 13


 236:source\asw/control.c ****                 }else{
 237:source\asw/control.c ****                     CancelAlarm(alrm_Timer);
 450              		.loc 1 237 0
 451 01b8 0220     		movs	r0, #2
 452 01ba FFF7FEFF 		bl	EE_oo_CancelAlarm
 453              	.LVL52:
 238:source\asw/control.c ****                     noOfTurns++;
 454              		.loc 1 238 0
 455 01be 2D4D     		ldr	r5, .L26
 456 01c0 AC88     		ldrh	r4, [r5, #4]
 457 01c2 0134     		adds	r4, r4, #1
 458 01c4 A4B2     		uxth	r4, r4
 459 01c6 AC80     		strh	r4, [r5, #4]	@ movhi
 239:source\asw/control.c ****                     
 240:source\asw/control.c ****                     sprintf(buffer+strlen(buffer),"Round number %d \r\n", noOfTurns);
 460              		.loc 1 240 0
 461 01c8 6846     		mov	r0, sp
 462 01ca FFF7FEFF 		bl	strlen
 463              	.LVL53:
 464 01ce 2246     		mov	r2, r4
 465 01d0 2949     		ldr	r1, .L26+4
 466 01d2 6844     		add	r0, r0, sp
 467 01d4 FFF7FEFF 		bl	sprintf
 468              	.LVL54:
 241:source\asw/control.c ****                     sprintf(buffer+strlen(buffer),"%s \r\n","Incorrect button pressed");
 469              		.loc 1 241 0
 470 01d8 6846     		mov	r0, sp
 471 01da FFF7FEFF 		bl	strlen
 472              	.LVL55:
 473 01de 2C4A     		ldr	r2, .L26+28
 474 01e0 2749     		ldr	r1, .L26+12
 475 01e2 6844     		add	r0, r0, sp
 476 01e4 FFF7FEFF 		bl	sprintf
 477              	.LVL56:
 242:source\asw/control.c ****                     UART_LOG_PutString(buffer);
 478              		.loc 1 242 0
 479 01e8 6846     		mov	r0, sp
 480 01ea FFF7FEFF 		bl	UART_LOG_PutString
 481              	.LVL57:
 243:source\asw/control.c ****                     
 244:source\asw/control.c ****                     sevenSegmentInit();  
 482              		.loc 1 244 0
 483 01ee FFF7FEFF 		bl	sevenSegmentInit
 484              	.LVL58:
 245:source\asw/control.c ****                     
 246:source\asw/control.c ****                     if(noOfTurns == 10){
 485              		.loc 1 246 0
 486 01f2 AB88     		ldrh	r3, [r5, #4]
 487 01f4 0A2B     		cmp	r3, #10
 488 01f6 05D1     		bne	.L23
 247:source\asw/control.c ****                        CTRL_state = CTRL_STATE_GAMEENDS;
 489              		.loc 1 247 0
 490 01f8 0322     		movs	r2, #3
 491 01fa AA71     		strb	r2, [r5, #6]
 248:source\asw/control.c ****                        CTRL_processEvent1(EV_button1Press);
 492              		.loc 1 248 0
 493 01fc 0820     		movs	r0, #8
ARM GAS  C:\Users\abhim\AppData\Local\Temp\ccbpAwgu.s 			page 14


 494 01fe FFF7FEFF 		bl	CTRL_processEvent1
 495              	.LVL59:
 496 0202 34E0     		b	.L13
 497              	.L23:
 249:source\asw/control.c ****                     }else{
 250:source\asw/control.c ****                        SetEvent(tsk_control,ev_resetGame);
 498              		.loc 1 250 0
 499 0204 0821     		movs	r1, #8
 500 0206 0220     		movs	r0, #2
 501 0208 FFF7FEFF 		bl	EE_oo_SetEvent
 502              	.LVL60:
 251:source\asw/control.c ****                        CTRL_state = CTRL_STATE_WAIT_BTNPRESS; 
 503              		.loc 1 251 0
 504 020c 0022     		movs	r2, #0
 505 020e 194B     		ldr	r3, .L26
 506 0210 9A71     		strb	r2, [r3, #6]
 507 0212 2CE0     		b	.L13
 508              	.L15:
 252:source\asw/control.c ****                     }
 253:source\asw/control.c ****                 }   
 254:source\asw/control.c ****                 break;
 255:source\asw/control.c ****              default:
 256:source\asw/control.c ****                 break;
 257:source\asw/control.c ****             }          
 258:source\asw/control.c ****         }else{
 259:source\asw/control.c ****             CancelAlarm(alrm_Timer);
 509              		.loc 1 259 0
 510 0214 0220     		movs	r0, #2
 511 0216 FFF7FEFF 		bl	EE_oo_CancelAlarm
 512              	.LVL61:
 260:source\asw/control.c ****             noOfTurns++;
 513              		.loc 1 260 0
 514 021a 164D     		ldr	r5, .L26
 515 021c AC88     		ldrh	r4, [r5, #4]
 516 021e 0134     		adds	r4, r4, #1
 517 0220 A4B2     		uxth	r4, r4
 518 0222 AC80     		strh	r4, [r5, #4]	@ movhi
 261:source\asw/control.c ****             
 262:source\asw/control.c ****             sprintf(buffer+strlen(buffer),"Round number %d \r\n", noOfTurns);
 519              		.loc 1 262 0
 520 0224 6846     		mov	r0, sp
 521 0226 FFF7FEFF 		bl	strlen
 522              	.LVL62:
 523 022a 2246     		mov	r2, r4
 524 022c 1249     		ldr	r1, .L26+4
 525 022e 6844     		add	r0, r0, sp
 526 0230 FFF7FEFF 		bl	sprintf
 527              	.LVL63:
 263:source\asw/control.c ****             sprintf(buffer+strlen(buffer),"%s \r\n", "Too slow");
 528              		.loc 1 263 0
 529 0234 6846     		mov	r0, sp
 530 0236 FFF7FEFF 		bl	strlen
 531              	.LVL64:
 532 023a 164A     		ldr	r2, .L26+32
 533 023c 1049     		ldr	r1, .L26+12
 534 023e 6844     		add	r0, r0, sp
 535 0240 FFF7FEFF 		bl	sprintf
ARM GAS  C:\Users\abhim\AppData\Local\Temp\ccbpAwgu.s 			page 15


 536              	.LVL65:
 264:source\asw/control.c ****             UART_LOG_PutString(buffer); 
 537              		.loc 1 264 0
 538 0244 6846     		mov	r0, sp
 539 0246 FFF7FEFF 		bl	UART_LOG_PutString
 540              	.LVL66:
 265:source\asw/control.c ****             
 266:source\asw/control.c ****             sevenSegmentInit();  
 541              		.loc 1 266 0
 542 024a FFF7FEFF 		bl	sevenSegmentInit
 543              	.LVL67:
 267:source\asw/control.c ****             
 268:source\asw/control.c ****              if(noOfTurns == 10){
 544              		.loc 1 268 0
 545 024e AB88     		ldrh	r3, [r5, #4]
 546 0250 0A2B     		cmp	r3, #10
 547 0252 05D1     		bne	.L24
 269:source\asw/control.c ****                    CTRL_state = CTRL_STATE_GAMEENDS;
 548              		.loc 1 269 0
 549 0254 0322     		movs	r2, #3
 550 0256 AA71     		strb	r2, [r5, #6]
 270:source\asw/control.c ****                    CTRL_processEvent1(EV_button1Press);
 551              		.loc 1 270 0
 552 0258 0820     		movs	r0, #8
 553 025a FFF7FEFF 		bl	CTRL_processEvent1
 554              	.LVL68:
 555 025e 06E0     		b	.L13
 556              	.L24:
 271:source\asw/control.c ****               }else{
 272:source\asw/control.c ****                    SetEvent(tsk_control,ev_resetGame);
 557              		.loc 1 272 0
 558 0260 0821     		movs	r1, #8
 559 0262 0220     		movs	r0, #2
 560 0264 FFF7FEFF 		bl	EE_oo_SetEvent
 561              	.LVL69:
 273:source\asw/control.c ****                    CTRL_state = CTRL_STATE_WAIT_BTNPRESS; 
 562              		.loc 1 273 0
 563 0268 0022     		movs	r2, #0
 564 026a 024B     		ldr	r3, .L26
 565 026c 9A71     		strb	r2, [r3, #6]
 566              	.L13:
 274:source\asw/control.c ****               } 
 275:source\asw/control.c ****         }
 276:source\asw/control.c ****       
 277:source\asw/control.c ****     }
 278:source\asw/control.c ****     
 279:source\asw/control.c **** 
 280:source\asw/control.c **** }
 567              		.loc 1 280 0
 568 026e 20B0     		add	sp, sp, #128
 569              		.cfi_def_cfa_offset 16
 570              		@ sp needed
 571 0270 70BD     		pop	{r4, r5, r6, pc}
 572              	.L27:
 573 0272 00BF     		.align	2
 574              	.L26:
 575 0274 00000000 		.word	.LANCHOR0
ARM GAS  C:\Users\abhim\AppData\Local\Temp\ccbpAwgu.s 			page 16


 576 0278 00000000 		.word	.LC0
 577 027c 14000000 		.word	.LC1
 578 0280 34000000 		.word	.LC2
 579 0284 00000000 		.word	game
 580 0288 3C000000 		.word	.LC3
 581 028c 54000000 		.word	.LC4
 582 0290 74000000 		.word	.LC5
 583 0294 90000000 		.word	.LC6
 584              		.cfi_endproc
 585              	.LFE114:
 586              		.size	validateBtnPress1, .-validateBtnPress1
 587              		.global	__aeabi_ui2f
 588              		.global	__aeabi_fdiv
 589              		.global	__aeabi_f2iz
 590              		.global	__aeabi_i2f
 591              		.global	__aeabi_fsub
 592              		.global	__aeabi_fmul
 593              		.section	.text.CTRL_processEvent1,"ax",%progbits
 594              		.align	2
 595              		.global	CTRL_processEvent1
 596              		.thumb
 597              		.thumb_func
 598              		.type	CTRL_processEvent1, %function
 599              	CTRL_processEvent1:
 600              	.LFB113:
 104:source\asw/control.c ****     char buffer[64];
 601              		.loc 1 104 0
 602              		.cfi_startproc
 603              		@ args = 0, pretend = 0, frame = 64
 604              		@ frame_needed = 0, uses_anonymous_args = 0
 605              	.LVL70:
 606 0000 70B5     		push	{r4, r5, r6, lr}
 607              		.cfi_def_cfa_offset 16
 608              		.cfi_offset 4, -16
 609              		.cfi_offset 5, -12
 610              		.cfi_offset 6, -8
 611              		.cfi_offset 14, -4
 612 0002 90B0     		sub	sp, sp, #64
 613              		.cfi_def_cfa_offset 80
 107:source\asw/control.c ****     {
 614              		.loc 1 107 0
 615 0004 414B     		ldr	r3, .L36
 616 0006 9B79     		ldrb	r3, [r3, #6]	@ zero_extendqisi2
 617 0008 022B     		cmp	r3, #2
 618 000a 25D0     		beq	.L30
 619 000c 032B     		cmp	r3, #3
 620 000e 2DD0     		beq	.L31
 621 0010 002B     		cmp	r3, #0
 622 0012 78D1     		bne	.L28
 623              	.LBB2:
 110:source\asw/control.c ****             {     
 624              		.loc 1 110 0
 625 0014 0828     		cmp	r0, #8
 626 0016 0ED1     		bne	.L33
 112:source\asw/control.c ****                     randomTime = randomTimeGenerate();
 627              		.loc 1 112 0
 628 0018 3C4B     		ldr	r3, .L36
ARM GAS  C:\Users\abhim\AppData\Local\Temp\ccbpAwgu.s 			page 17


 629 001a 9B88     		ldrh	r3, [r3, #4]
 630 001c 092B     		cmp	r3, #9
 631 001e 72D8     		bhi	.L28
 113:source\asw/control.c ****                     SetRelAlarm(alrm_randomTime, randomTime,0);
 632              		.loc 1 113 0
 633 0020 FFF7FEFF 		bl	randomTimeGenerate
 634              	.LVL71:
 114:source\asw/control.c ****                     CTRL_state = CTRL_STATE_USERACTION;
 635              		.loc 1 114 0
 636 0024 0022     		movs	r2, #0
 637 0026 0146     		mov	r1, r0
 638 0028 0120     		movs	r0, #1
 639              	.LVL72:
 640 002a FFF7FEFF 		bl	EE_oo_SetRelAlarm
 641              	.LVL73:
 115:source\asw/control.c ****                 }
 642              		.loc 1 115 0
 643 002e 0222     		movs	r2, #2
 644 0030 364B     		ldr	r3, .L36
 645 0032 9A71     		strb	r2, [r3, #6]
 646 0034 67E0     		b	.L28
 647              	.LVL74:
 648              	.L33:
 118:source\asw/control.c ****             {  
 649              		.loc 1 118 0
 650 0036 0928     		cmp	r0, #9
 651 0038 65D1     		bne	.L28
 120:source\asw/control.c ****                     randomTime = randomTimeGenerate();
 652              		.loc 1 120 0
 653 003a 344B     		ldr	r3, .L36
 654 003c 9B88     		ldrh	r3, [r3, #4]
 655 003e 092B     		cmp	r3, #9
 656 0040 61D8     		bhi	.L28
 121:source\asw/control.c ****                     SetRelAlarm(alrm_randomTime, randomTime,0);
 657              		.loc 1 121 0
 658 0042 FFF7FEFF 		bl	randomTimeGenerate
 659              	.LVL75:
 122:source\asw/control.c ****                     CTRL_state = CTRL_STATE_USERACTION;
 660              		.loc 1 122 0
 661 0046 0022     		movs	r2, #0
 662 0048 0146     		mov	r1, r0
 663 004a 0120     		movs	r0, #1
 664              	.LVL76:
 665 004c FFF7FEFF 		bl	EE_oo_SetRelAlarm
 666              	.LVL77:
 123:source\asw/control.c ****                 }
 667              		.loc 1 123 0
 668 0050 0222     		movs	r2, #2
 669 0052 2E4B     		ldr	r3, .L36
 670 0054 9A71     		strb	r2, [r3, #6]
 671 0056 56E0     		b	.L28
 672              	.LVL78:
 673              	.L30:
 132:source\asw/control.c ****             {
 674              		.loc 1 132 0
 675 0058 0928     		cmp	r0, #9
 676 005a 02D1     		bne	.L34
ARM GAS  C:\Users\abhim\AppData\Local\Temp\ccbpAwgu.s 			page 18


 134:source\asw/control.c ****             }
 677              		.loc 1 134 0
 678 005c FFF7FEFF 		bl	validateBtnPress1
 679              	.LVL79:
 680 0060 51E0     		b	.L28
 681              	.LVL80:
 682              	.L34:
 136:source\asw/control.c ****             {
 683              		.loc 1 136 0
 684 0062 0828     		cmp	r0, #8
 685 0064 4FD1     		bne	.L28
 138:source\asw/control.c ****             }
 686              		.loc 1 138 0
 687 0066 FFF7FEFF 		bl	validateBtnPress1
 688              	.LVL81:
 689 006a 4CE0     		b	.L28
 690              	.LVL82:
 691              	.L31:
 146:source\asw/control.c ****             sprintf(buffer+strlen(buffer),"%s\r\n","Game Ends");
 692              		.loc 1 146 0
 693 006c 0020     		movs	r0, #0
 694              	.LVL83:
 695 006e FFF7FEFF 		bl	EE_oo_CancelAlarm
 696              	.LVL84:
 147:source\asw/control.c ****             sprintf(buffer+strlen(buffer),"Correct buttons pressed = %d\r\n",game.crctBtnPress);
 697              		.loc 1 147 0
 698 0072 6846     		mov	r0, sp
 699 0074 FFF7FEFF 		bl	strlen
 700              	.LVL85:
 701 0078 254A     		ldr	r2, .L36+4
 702 007a 2649     		ldr	r1, .L36+8
 703 007c 6844     		add	r0, r0, sp
 704 007e FFF7FEFF 		bl	sprintf
 705              	.LVL86:
 148:source\asw/control.c ****             sprintf(buffer+strlen(buffer),"Total time = %dms \r\n",game.totalTime);
 706              		.loc 1 148 0
 707 0082 6846     		mov	r0, sp
 708 0084 FFF7FEFF 		bl	strlen
 709              	.LVL87:
 710 0088 234C     		ldr	r4, .L36+12
 711 008a A288     		ldrh	r2, [r4, #4]
 712 008c 2349     		ldr	r1, .L36+16
 713 008e 6844     		add	r0, r0, sp
 714 0090 FFF7FEFF 		bl	sprintf
 715              	.LVL88:
 149:source\asw/control.c ****             float totalTime = (float)game.totalTime/10;
 716              		.loc 1 149 0
 717 0094 6846     		mov	r0, sp
 718 0096 FFF7FEFF 		bl	strlen
 719              	.LVL89:
 720 009a 2268     		ldr	r2, [r4]
 721 009c 2049     		ldr	r1, .L36+20
 722 009e 6844     		add	r0, r0, sp
 723 00a0 FFF7FEFF 		bl	sprintf
 724              	.LVL90:
 150:source\asw/control.c ****             sprintf(buffer + strlen(buffer), "Average time = %d.%06d ms \r\n",(int)totalTime, (int)
 725              		.loc 1 150 0
ARM GAS  C:\Users\abhim\AppData\Local\Temp\ccbpAwgu.s 			page 19


 726 00a4 2068     		ldr	r0, [r4]
 727 00a6 FFF7FEFF 		bl	__aeabi_ui2f
 728              	.LVL91:
 729 00aa 1E49     		ldr	r1, .L36+24
 730 00ac FFF7FEFF 		bl	__aeabi_fdiv
 731              	.LVL92:
 732 00b0 0446     		mov	r4, r0
 733              	.LVL93:
 151:source\asw/control.c ****             UART_LOG_PutString(buffer);
 734              		.loc 1 151 0
 735 00b2 6846     		mov	r0, sp
 736              	.LVL94:
 737 00b4 FFF7FEFF 		bl	strlen
 738              	.LVL95:
 739 00b8 0546     		mov	r5, r0
 740 00ba 2046     		mov	r0, r4
 741 00bc FFF7FEFF 		bl	__aeabi_f2iz
 742              	.LVL96:
 743 00c0 0646     		mov	r6, r0
 744 00c2 FFF7FEFF 		bl	__aeabi_i2f
 745              	.LVL97:
 746 00c6 0146     		mov	r1, r0
 747 00c8 2046     		mov	r0, r4
 748 00ca FFF7FEFF 		bl	__aeabi_fsub
 749              	.LVL98:
 750 00ce 1649     		ldr	r1, .L36+28
 751 00d0 FFF7FEFF 		bl	__aeabi_fmul
 752              	.LVL99:
 753 00d4 FFF7FEFF 		bl	__aeabi_f2iz
 754              	.LVL100:
 755 00d8 0346     		mov	r3, r0
 756 00da 3246     		mov	r2, r6
 757 00dc 1349     		ldr	r1, .L36+32
 758 00de 0DEB0500 		add	r0, sp, r5
 759 00e2 FFF7FEFF 		bl	sprintf
 760              	.LVL101:
 152:source\asw/control.c ****             
 761              		.loc 1 152 0
 762 00e6 6846     		mov	r0, sp
 763 00e8 FFF7FEFF 		bl	UART_LOG_PutString
 764              	.LVL102:
 155:source\asw/control.c ****             
 765              		.loc 1 155 0
 766 00ec FFF7FEFF 		bl	LED_init
 767              	.LVL103:
 157:source\asw/control.c ****             
 768              		.loc 1 157 0
 769 00f0 FFF7FEFF 		bl	stopFaderGlower
 770              	.LVL104:
 159:source\asw/control.c ****             SetEvent(tsk_control,ev_resetGame);
 771              		.loc 1 159 0
 772 00f4 FFF7FEFF 		bl	sevenSegmentInit
 773              	.LVL105:
 160:source\asw/control.c ****             CTRL_state = CTRL_STATE_WAIT_BTNPRESS;                  
 774              		.loc 1 160 0
 775 00f8 0821     		movs	r1, #8
 776 00fa 0220     		movs	r0, #2
ARM GAS  C:\Users\abhim\AppData\Local\Temp\ccbpAwgu.s 			page 20


 777 00fc FFF7FEFF 		bl	EE_oo_SetEvent
 778              	.LVL106:
 161:source\asw/control.c ****         default:
 779              		.loc 1 161 0
 780 0100 0022     		movs	r2, #0
 781 0102 024B     		ldr	r3, .L36
 782 0104 9A71     		strb	r2, [r3, #6]
 783              	.LVL107:
 784              	.L28:
 785              	.LBE2:
 166:source\asw/control.c **** 
 786              		.loc 1 166 0
 787 0106 10B0     		add	sp, sp, #64
 788              		.cfi_def_cfa_offset 16
 789              		@ sp needed
 790 0108 70BD     		pop	{r4, r5, r6, pc}
 791              	.L37:
 792 010a 00BF     		.align	2
 793              	.L36:
 794 010c 00000000 		.word	.LANCHOR0
 795 0110 9C000000 		.word	.LC7
 796 0114 A8000000 		.word	.LC8
 797 0118 00000000 		.word	game
 798 011c B0000000 		.word	.LC9
 799 0120 D0000000 		.word	.LC10
 800 0124 00002041 		.word	1092616192
 801 0128 00247449 		.word	1232348160
 802 012c E8000000 		.word	.LC11
 803              		.cfi_endproc
 804              	.LFE113:
 805              		.size	CTRL_processEvent1, .-CTRL_processEvent1
 806              		.global	time_count
 807              		.global	buttonFlag
 808              		.comm	systickCounter,4,4
 809              		.comm	game,8,4
 810              		.section	.rodata.str1.4,"aMS",%progbits,1
 811              		.align	2
 812              	.LC0:
 813 0000 526F756E 		.ascii	"Round number %d \015\012\000"
 813      64206E75 
 813      6D626572 
 813      20256420 
 813      0D0A00
 814 0013 00       		.space	1
 815              	.LC1:
 816 0014 47726561 		.ascii	"Great - correct button pressed\000"
 816      74202D20 
 816      636F7272 
 816      65637420 
 816      62757474 
 817 0033 00       		.space	1
 818              	.LC2:
 819 0034 2573200D 		.ascii	"%s \015\012\000"
 819      0A00
 820 003a 0000     		.space	2
 821              	.LC3:
 822 003c 52656163 		.ascii	"Reaction time :%d ms \015\012\000"
ARM GAS  C:\Users\abhim\AppData\Local\Temp\ccbpAwgu.s 			page 21


 822      74696F6E 
 822      2074696D 
 822      65203A25 
 822      64206D73 
 823              	.LC4:
 824 0054 436F7272 		.ascii	"Correct buttons press = %d \015\012\000"
 824      65637420 
 824      62757474 
 824      6F6E7320 
 824      70726573 
 825 0072 0000     		.space	2
 826              	.LC5:
 827 0074 496E636F 		.ascii	"Incorrect button pressed\000"
 827      72726563 
 827      74206275 
 827      74746F6E 
 827      20707265 
 828 008d 000000   		.space	3
 829              	.LC6:
 830 0090 546F6F20 		.ascii	"Too slow\000"
 830      736C6F77 
 830      00
 831 0099 000000   		.space	3
 832              	.LC7:
 833 009c 47616D65 		.ascii	"Game Ends\000"
 833      20456E64 
 833      7300
 834 00a6 0000     		.space	2
 835              	.LC8:
 836 00a8 25730D0A 		.ascii	"%s\015\012\000"
 836      00
 837 00ad 000000   		.space	3
 838              	.LC9:
 839 00b0 436F7272 		.ascii	"Correct buttons pressed = %d\015\012\000"
 839      65637420 
 839      62757474 
 839      6F6E7320 
 839      70726573 
 840 00cf 00       		.space	1
 841              	.LC10:
 842 00d0 546F7461 		.ascii	"Total time = %dms \015\012\000"
 842      6C207469 
 842      6D65203D 
 842      2025646D 
 842      73200D0A 
 843 00e5 000000   		.space	3
 844              	.LC11:
 845 00e8 41766572 		.ascii	"Average time = %d.%06d ms \015\012\000"
 845      61676520 
 845      74696D65 
 845      203D2025 
 845      642E2530 
 846              		.bss
 847              		.align	1
 848              		.set	.LANCHOR0,. + 0
 849              		.type	randomNum, %object
 850              		.size	randomNum, 2
ARM GAS  C:\Users\abhim\AppData\Local\Temp\ccbpAwgu.s 			page 22


 851              	randomNum:
 852 0000 0000     		.space	2
 853              		.type	time_count, %object
 854              		.size	time_count, 2
 855              	time_count:
 856 0002 0000     		.space	2
 857              		.type	noOfTurns, %object
 858              		.size	noOfTurns, 2
 859              	noOfTurns:
 860 0004 0000     		.space	2
 861              		.type	CTRL_state, %object
 862              		.size	CTRL_state, 1
 863              	CTRL_state:
 864 0006 00       		.space	1
 865 0007 00       		.space	1
 866              		.type	buttonFlag, %object
 867              		.size	buttonFlag, 2
 868              	buttonFlag:
 869 0008 0000     		.space	2
 870              		.text
 871              	.Letext0:
 872              		.file 2 "c:\\program files (x86)\\cypress\\psoc creator\\4.4\\psoc creator\\import\\gnu\\arm\\5.4.
 873              		.file 3 "c:\\program files (x86)\\cypress\\psoc creator\\4.4\\psoc creator\\import\\gnu\\arm\\5.4.
 874              		.file 4 "Generated_Source\\PSoC5/ErikaOS_1_common_ee_types.inc"
 875              		.file 5 "Generated_Source\\PSoC5/ErikaOS_1_cortex_mx_ee_cpu.inc"
 876              		.file 6 ".\\source\\bsw/global.h"
 877              		.file 7 "source\\asw\\../bsw/labboard/game.h"
 878              		.file 8 "source\\asw\\control.h"
 879              		.file 9 "Generated_Source\\PSoC5/ErikaOS_1_ee_oo_intfunc.inc"
 880              		.file 10 "Generated_Source\\PSoC5/ErikaOS_1_cortex_mx_ee_context.inc"
 881              		.file 11 "Generated_Source\\PSoC5/ErikaOS_1_common_ee_primitives.inc"
 882              		.file 12 "Generated_Source\\PSoC5/core_cm3.h"
 883              		.file 13 "c:\\program files (x86)\\cypress\\psoc creator\\4.4\\psoc creator\\import\\gnu\\arm\\5.4
 884              		.file 14 "Generated_Source\\PSoC5/Pin_SelA.h"
 885              		.file 15 "source\\asw\\../bsw/labboard/sevenSegment.h"
 886              		.file 16 "Generated_Source\\PSoC5/ErikaOS_1_ee_oo_kernel.inc"
 887              		.file 17 "c:\\program files (x86)\\cypress\\psoc creator\\4.4\\psoc creator\\import\\gnu\\arm\\5.4
 888              		.file 18 "c:\\program files (x86)\\cypress\\psoc creator\\4.4\\psoc creator\\import\\gnu\\arm\\5.4
 889              		.file 19 "Generated_Source\\PSoC5/UART_LOG.h"
 890              		.file 20 "source\\asw\\../bsw/labboard/led.h"