ARM GAS  C:\Users\abhim\AppData\Local\Temp\ccNxqdys.s 			page 1


   1              		.syntax unified
   2              		.cpu cortex-m3
   3              		.fpu softvfp
   4              		.eabi_attribute 20, 1
   5              		.eabi_attribute 21, 1
   6              		.eabi_attribute 23, 3
   7              		.eabi_attribute 24, 1
   8              		.eabi_attribute 25, 1
   9              		.eabi_attribute 26, 1
  10              		.eabi_attribute 30, 1
  11              		.eabi_attribute 34, 1
  12              		.eabi_attribute 18, 4
  13              		.thumb
  14              		.syntax unified
  15              		.file	"led.c"
  16              		.text
  17              	.Ltext0:
  18              		.cfi_sections	.debug_frame
  19              		.section	.text.LED_set,"ax",%progbits
  20              		.align	2
  21              		.global	LED_set
  22              		.thumb
  23              		.thumb_func
  24              		.type	LED_set, %function
  25              	LED_set:
  26              	.LFB112:
  27              		.file 1 "source\\bsw\\labboard\\led.c"
   1:source\bsw\labboard/led.c **** /**
   2:source\bsw\labboard/led.c **** * \file <filename>
   3:source\bsw\labboard/led.c **** * \author <author-name>
   4:source\bsw\labboard/led.c **** * \date <date>
   5:source\bsw\labboard/led.c **** *
   6:source\bsw\labboard/led.c **** * \brief <Symbolic File name>
   7:source\bsw\labboard/led.c **** *
   8:source\bsw\labboard/led.c **** * \copyright Copyright ©2016
   9:source\bsw\labboard/led.c **** * Department of electrical engineering and information technology, Hochschule Darmstadt - Universit
  10:source\bsw\labboard/led.c **** * Permission to use, copy, modify, and distribute this software and its documentation for education
  11:source\bsw\labboard/led.c **** * (unless permitted by h_da) and official h_da projects, is hereby granted for enrolled students of
  12:source\bsw\labboard/led.c **** * this paragraph and the following paragraph appear in all copies, modifications, and distributions
  13:source\bsw\labboard/led.c **** * Contact Prof.Dr.-Ing. Peter Fromm, peter.fromm@h-da.de, Birkenweg 8 64295 Darmstadt - GERMANY for
  14:source\bsw\labboard/led.c **** *
  15:source\bsw\labboard/led.c **** * \warning This software is a PROTOTYPE version and is not designed or intended for use in producti
  16:source\bsw\labboard/led.c **** * The user represents and warrants that it will NOT use or redistribute the Software for such purpo
  17:source\bsw\labboard/led.c **** * This prototype is for research purposes only. This software is provided "AS IS," without a warran
  18:source\bsw\labboard/led.c **** */
  19:source\bsw\labboard/led.c **** 
  20:source\bsw\labboard/led.c **** /*****************************************************************************/
  21:source\bsw\labboard/led.c **** /* Include files                                                             */
  22:source\bsw\labboard/led.c **** /*****************************************************************************/
  23:source\bsw\labboard/led.c **** 
  24:source\bsw\labboard/led.c **** #include "led.h"
  25:source\bsw\labboard/led.c **** 
  26:source\bsw\labboard/led.c **** /*****************************************************************************/
  27:source\bsw\labboard/led.c **** /* Local pre-processor symbols/macros ('#define')                            */
  28:source\bsw\labboard/led.c **** /*****************************************************************************/
  29:source\bsw\labboard/led.c **** 
  30:source\bsw\labboard/led.c **** /*****************************************************************************/
ARM GAS  C:\Users\abhim\AppData\Local\Temp\ccNxqdys.s 			page 2


  31:source\bsw\labboard/led.c **** /* Global variable definitions (declared in header file with 'extern')       */
  32:source\bsw\labboard/led.c **** /*****************************************************************************/
  33:source\bsw\labboard/led.c **** 
  34:source\bsw\labboard/led.c **** /*****************************************************************************/
  35:source\bsw\labboard/led.c **** /* Local type definitions ('typedef')                                        */
  36:source\bsw\labboard/led.c **** /*****************************************************************************/
  37:source\bsw\labboard/led.c ****  static ledOnOff ledState[LED_ALL]={LED_OFF,LED_OFF,LED_OFF};
  38:source\bsw\labboard/led.c **** /*****************************************************************************/
  39:source\bsw\labboard/led.c **** /* Local variable definitions ('static')                                     */
  40:source\bsw\labboard/led.c **** /*****************************************************************************/
  41:source\bsw\labboard/led.c **** 
  42:source\bsw\labboard/led.c **** 
  43:source\bsw\labboard/led.c **** 
  44:source\bsw\labboard/led.c **** /*****************************************************************************/
  45:source\bsw\labboard/led.c **** /* Local function prototypes ('static')                                      */
  46:source\bsw\labboard/led.c **** /*****************************************************************************/
  47:source\bsw\labboard/led.c **** 
  48:source\bsw\labboard/led.c **** 
  49:source\bsw\labboard/led.c **** /*****************************************************************************/
  50:source\bsw\labboard/led.c **** /* Function implementation - global ('extern') and local ('static')          */
  51:source\bsw\labboard/led.c **** /*****************************************************************************/
  52:source\bsw\labboard/led.c **** 
  53:source\bsw\labboard/led.c **** /**
  54:source\bsw\labboard/led.c ****  * <Description>
  55:source\bsw\labboard/led.c ****  * \param <first para>
  56:source\bsw\labboard/led.c ****  * \return <return value>
  57:source\bsw\labboard/led.c ****  */
  58:source\bsw\labboard/led.c **** void LED_init(){
  59:source\bsw\labboard/led.c ****     RGB_PWM_Yellow_Start();
  60:source\bsw\labboard/led.c ****     RGB_PWM_Green_Start();
  61:source\bsw\labboard/led.c ****     RGB_PWM_Red_Start();
  62:source\bsw\labboard/led.c ****    	LED_set(LED_ALL,LED_OFF);
  63:source\bsw\labboard/led.c **** }
  64:source\bsw\labboard/led.c **** 
  65:source\bsw\labboard/led.c **** void LED_set(ledId id, ledOnOff val){
  28              		.loc 1 65 0
  29              		.cfi_startproc
  30              		@ args = 0, pretend = 0, frame = 0
  31              		@ frame_needed = 0, uses_anonymous_args = 0
  32              	.LVL0:
  33 0000 08B5     		push	{r3, lr}
  34              		.cfi_def_cfa_offset 8
  35              		.cfi_offset 3, -8
  36              		.cfi_offset 14, -4
  37              	.LVL1:
  66:source\bsw\labboard/led.c ****     val =0;
  67:source\bsw\labboard/led.c ****     if(id == 0){
  38              		.loc 1 67 0
  39 0002 10B9     		cbnz	r0, .L2
  68:source\bsw\labboard/led.c ****       LED_red_Write(val);
  40              		.loc 1 68 0
  41 0004 FFF7FEFF 		bl	LED_red_Write
  42              	.LVL2:
  43 0008 08BD     		pop	{r3, pc}
  44              	.LVL3:
  45              	.L2:
  69:source\bsw\labboard/led.c ****     }else if(id == 1){
ARM GAS  C:\Users\abhim\AppData\Local\Temp\ccNxqdys.s 			page 3


  46              		.loc 1 69 0
  47 000a 0128     		cmp	r0, #1
  48 000c 03D1     		bne	.L4
  70:source\bsw\labboard/led.c ****       LED_Yellow_Write(val);
  49              		.loc 1 70 0
  50 000e 0020     		movs	r0, #0
  51              	.LVL4:
  52 0010 FFF7FEFF 		bl	LED_Yellow_Write
  53              	.LVL5:
  54 0014 08BD     		pop	{r3, pc}
  55              	.LVL6:
  56              	.L4:
  71:source\bsw\labboard/led.c ****     }else if(id == 2){
  57              		.loc 1 71 0
  58 0016 0228     		cmp	r0, #2
  59 0018 03D1     		bne	.L5
  72:source\bsw\labboard/led.c ****       LED_green_Write(val);
  60              		.loc 1 72 0
  61 001a 0020     		movs	r0, #0
  62              	.LVL7:
  63 001c FFF7FEFF 		bl	LED_green_Write
  64              	.LVL8:
  65 0020 08BD     		pop	{r3, pc}
  66              	.LVL9:
  67              	.L5:
  73:source\bsw\labboard/led.c ****     }else if(id == 3){
  68              		.loc 1 73 0
  69 0022 0328     		cmp	r0, #3
  70 0024 08D1     		bne	.L1
  74:source\bsw\labboard/led.c ****       LED_red_Write(val);
  71              		.loc 1 74 0
  72 0026 0020     		movs	r0, #0
  73              	.LVL10:
  74 0028 FFF7FEFF 		bl	LED_red_Write
  75              	.LVL11:
  75:source\bsw\labboard/led.c ****       LED_Yellow_Write(val);
  76              		.loc 1 75 0
  77 002c 0020     		movs	r0, #0
  78 002e FFF7FEFF 		bl	LED_Yellow_Write
  79              	.LVL12:
  76:source\bsw\labboard/led.c ****       LED_green_Write(val);
  80              		.loc 1 76 0
  81 0032 0020     		movs	r0, #0
  82 0034 FFF7FEFF 		bl	LED_green_Write
  83              	.LVL13:
  84              	.L1:
  85 0038 08BD     		pop	{r3, pc}
  86              		.cfi_endproc
  87              	.LFE112:
  88              		.size	LED_set, .-LED_set
  89 003a 00BF     		.section	.text.LED_init,"ax",%progbits
  90              		.align	2
  91              		.global	LED_init
  92              		.thumb
  93              		.thumb_func
  94              		.type	LED_init, %function
  95              	LED_init:
ARM GAS  C:\Users\abhim\AppData\Local\Temp\ccNxqdys.s 			page 4


  96              	.LFB111:
  58:source\bsw\labboard/led.c ****     RGB_PWM_Yellow_Start();
  97              		.loc 1 58 0
  98              		.cfi_startproc
  99              		@ args = 0, pretend = 0, frame = 0
 100              		@ frame_needed = 0, uses_anonymous_args = 0
 101 0000 08B5     		push	{r3, lr}
 102              		.cfi_def_cfa_offset 8
 103              		.cfi_offset 3, -8
 104              		.cfi_offset 14, -4
  59:source\bsw\labboard/led.c ****     RGB_PWM_Green_Start();
 105              		.loc 1 59 0
 106 0002 FFF7FEFF 		bl	RGB_PWM_Yellow_Start
 107              	.LVL14:
  60:source\bsw\labboard/led.c ****     RGB_PWM_Red_Start();
 108              		.loc 1 60 0
 109 0006 FFF7FEFF 		bl	RGB_PWM_Green_Start
 110              	.LVL15:
  61:source\bsw\labboard/led.c ****    	LED_set(LED_ALL,LED_OFF);
 111              		.loc 1 61 0
 112 000a FFF7FEFF 		bl	RGB_PWM_Red_Start
 113              	.LVL16:
  62:source\bsw\labboard/led.c **** }
 114              		.loc 1 62 0
 115 000e 0021     		movs	r1, #0
 116 0010 0320     		movs	r0, #3
 117 0012 FFF7FEFF 		bl	LED_set
 118              	.LVL17:
 119 0016 08BD     		pop	{r3, pc}
 120              		.cfi_endproc
 121              	.LFE111:
 122              		.size	LED_init, .-LED_init
 123              		.section	.text.LED_fadeEffect,"ax",%progbits
 124              		.align	2
 125              		.global	LED_fadeEffect
 126              		.thumb
 127              		.thumb_func
 128              		.type	LED_fadeEffect, %function
 129              	LED_fadeEffect:
 130              	.LFB113:
  77:source\bsw\labboard/led.c ****     }else{
  78:source\bsw\labboard/led.c ****         //Nothing
  79:source\bsw\labboard/led.c ****     }
  80:source\bsw\labboard/led.c ****     
  81:source\bsw\labboard/led.c ****     ledState[id] = val;
  82:source\bsw\labboard/led.c **** }
  83:source\bsw\labboard/led.c **** 
  84:source\bsw\labboard/led.c **** const static uint16 LED__Pulse_Width[256] = {
  85:source\bsw\labboard/led.c **** 0, 1, 1, 1, 1, 1, 1, 1, 1, 2, 2, 2, 2, 2, 2, 2, 2, 2, 2, 2, 2, 3,
  86:source\bsw\labboard/led.c **** 3, 3, 3, 3, 3, 3, 4, 4, 4, 4, 4, 4, 5, 5, 5, 5, 5, 6, 6, 6, 6, 7,
  87:source\bsw\labboard/led.c **** 7, 7, 8, 8, 8, 9, 9, 10, 10, 10, 11, 11, 12, 12, 13, 13, 14, 15,
  88:source\bsw\labboard/led.c **** 15, 16, 17, 17, 18, 19, 20, 21, 22, 23, 24, 25, 26, 27, 28, 29,
  89:source\bsw\labboard/led.c **** 31, 32, 33, 35, 36, 38, 40, 41, 43, 45, 47, 49, 52, 54, 56, 59,
  90:source\bsw\labboard/led.c **** 61, 64, 67, 70, 73, 76, 79, 83, 87, 91, 95, 99, 103, 108, 112,
  91:source\bsw\labboard/led.c **** 117, 123, 128, 134, 140, 146, 152, 159, 166, 173, 181, 189, 197,
  92:source\bsw\labboard/led.c **** 206, 215, 225, 235, 245, 256, 267, 279, 292, 304, 318, 332, 347,
  93:source\bsw\labboard/led.c **** 362, 378, 395, 412, 431, 450, 470, 490, 512, 535, 558, 583, 609,
ARM GAS  C:\Users\abhim\AppData\Local\Temp\ccNxqdys.s 			page 5


  94:source\bsw\labboard/led.c **** 636, 664, 693, 724, 756, 790, 825, 861, 899, 939, 981, 1024, 1069,
  95:source\bsw\labboard/led.c **** 1117, 1166, 1218, 1272, 1328, 1387, 1448, 1512, 1579, 1649, 1722,
  96:source\bsw\labboard/led.c **** 1798, 1878, 1961, 2048, 2139, 2233, 2332, 2435, 2543, 2656, 2773,
  97:source\bsw\labboard/led.c **** 2896, 3025, 3158, 3298, 3444, 3597, 3756, 3922, 4096, 4277, 4467,
  98:source\bsw\labboard/led.c **** 4664, 4871, 5087, 5312, 5547, 5793, 6049, 6317, 6596, 6889, 7194,
  99:source\bsw\labboard/led.c **** 7512, 7845, 8192, 8555, 8933, 9329, 9742, 10173, 10624, 11094,
 100:source\bsw\labboard/led.c **** 11585, 12098, 12634, 13193, 13777, 14387, 15024, 15689, 16384,
 101:source\bsw\labboard/led.c **** 17109, 17867, 18658, 19484, 20346, 21247, 22188, 23170, 24196,
 102:source\bsw\labboard/led.c **** 25267, 26386, 27554, 28774, 30048, 31378, 32768, 34218, 35733,
 103:source\bsw\labboard/led.c **** 37315, 38967, 40693, 42494, 44376, 46340, 48392, 50534, 52772,
 104:source\bsw\labboard/led.c **** 55108, 57548, 60096, 62757, 65535
 105:source\bsw\labboard/led.c **** };
 106:source\bsw\labboard/led.c **** 
 107:source\bsw\labboard/led.c **** const RG_Glow_t RG_glowtable_1[] = {
 108:source\bsw\labboard/led.c **** //Red Green Blue TimeInMS
 109:source\bsw\labboard/led.c **** {255, 0, 0, 500},
 110:source\bsw\labboard/led.c **** {0, 255, 0, 500},
 111:source\bsw\labboard/led.c **** {0, 0, 255, 500},
 112:source\bsw\labboard/led.c **** {0, 0, 0, 100},
 113:source\bsw\labboard/led.c **** {255, 255, 255, 100},
 114:source\bsw\labboard/led.c **** {0, 0, 0, 100},
 115:source\bsw\labboard/led.c **** {255, 255, 255, 100},
 116:source\bsw\labboard/led.c **** {0, 0, 0, 100},
 117:source\bsw\labboard/led.c **** {255, 255, 255, 100}
 118:source\bsw\labboard/led.c **** };
 119:source\bsw\labboard/led.c **** 
 120:source\bsw\labboard/led.c **** const size_t RG_glowtable_1_len = sizeof(RG_glowtable_1) / sizeof(RG_glowtable_1[0]);
 121:source\bsw\labboard/led.c **** 
 122:source\bsw\labboard/led.c **** void LED_fadeEffect(void) {
 131              		.loc 1 122 0
 132              		.cfi_startproc
 133              		@ args = 0, pretend = 0, frame = 0
 134              		@ frame_needed = 0, uses_anonymous_args = 0
 135 0000 38B5     		push	{r3, r4, r5, lr}
 136              		.cfi_def_cfa_offset 16
 137              		.cfi_offset 3, -16
 138              		.cfi_offset 4, -12
 139              		.cfi_offset 5, -8
 140              		.cfi_offset 14, -4
 141              	.LVL18:
 123:source\bsw\labboard/led.c ****     const size_t fadeSteps = sizeof(LED__Pulse_Width) / sizeof(LED__Pulse_Width[0]);
 124:source\bsw\labboard/led.c ****     size_t i;
 125:source\bsw\labboard/led.c **** 
 126:source\bsw\labboard/led.c **** 
 127:source\bsw\labboard/led.c ****          for (i = 0; i < fadeSteps; ++i) {
 142              		.loc 1 127 0
 143 0002 0024     		movs	r4, #0
 144 0004 11E0     		b	.L10
 145              	.LVL19:
 146              	.L11:
 128:source\bsw\labboard/led.c ****             RGB_PWM_Red_WriteCompare(LED__Pulse_Width[fadeSteps - 1 - i]);  // Red fades out
 147              		.loc 1 128 0 discriminator 3
 148 0006 C4F1FF03 		rsb	r3, r4, #255
 149 000a 1F4D     		ldr	r5, .L17
 150 000c 35F81300 		ldrh	r0, [r5, r3, lsl #1]
 151 0010 FFF7FEFF 		bl	RGB_PWM_Red_WriteCompare
 152              	.LVL20:
ARM GAS  C:\Users\abhim\AppData\Local\Temp\ccNxqdys.s 			page 6


 129:source\bsw\labboard/led.c ****             RGB_PWM_Yellow_WriteCompare(LED__Pulse_Width[i]);              // Yellow fades in
 153              		.loc 1 129 0 discriminator 3
 154 0014 35F81400 		ldrh	r0, [r5, r4, lsl #1]
 155 0018 FFF7FEFF 		bl	RGB_PWM_Yellow_WriteCompare
 156              	.LVL21:
 130:source\bsw\labboard/led.c ****             RGB_PWM_Green_WriteCompare(0);                                 // Green stays off
 157              		.loc 1 130 0 discriminator 3
 158 001c 0020     		movs	r0, #0
 159 001e FFF7FEFF 		bl	RGB_PWM_Green_WriteCompare
 160              	.LVL22:
 131:source\bsw\labboard/led.c ****             CyDelay(5);
 161              		.loc 1 131 0 discriminator 3
 162 0022 0520     		movs	r0, #5
 163 0024 FFF7FEFF 		bl	CyDelay
 164              	.LVL23:
 127:source\bsw\labboard/led.c ****             RGB_PWM_Red_WriteCompare(LED__Pulse_Width[fadeSteps - 1 - i]);  // Red fades out
 165              		.loc 1 127 0 discriminator 3
 166 0028 0134     		adds	r4, r4, #1
 167              	.LVL24:
 168              	.L10:
 127:source\bsw\labboard/led.c ****             RGB_PWM_Red_WriteCompare(LED__Pulse_Width[fadeSteps - 1 - i]);  // Red fades out
 169              		.loc 1 127 0 is_stmt 0 discriminator 1
 170 002a FF2C     		cmp	r4, #255
 171 002c EBD9     		bls	.L11
 172 002e 0024     		movs	r4, #0
 173              	.LVL25:
 174 0030 11E0     		b	.L12
 175              	.LVL26:
 176              	.L13:
 132:source\bsw\labboard/led.c ****         }
 133:source\bsw\labboard/led.c **** 
 134:source\bsw\labboard/led.c ****         // Transition: Yellow fades out, Green fades in
 135:source\bsw\labboard/led.c ****         for (i = 0; i < fadeSteps; ++i) {
 136:source\bsw\labboard/led.c ****             RGB_PWM_Yellow_WriteCompare(LED__Pulse_Width[fadeSteps - 1 - i]); // Yellow fades out
 177              		.loc 1 136 0 is_stmt 1 discriminator 3
 178 0032 C4F1FF03 		rsb	r3, r4, #255
 179 0036 144D     		ldr	r5, .L17
 180 0038 35F81300 		ldrh	r0, [r5, r3, lsl #1]
 181 003c FFF7FEFF 		bl	RGB_PWM_Yellow_WriteCompare
 182              	.LVL27:
 137:source\bsw\labboard/led.c ****             RGB_PWM_Green_WriteCompare(LED__Pulse_Width[i]);                // Green fades in
 183              		.loc 1 137 0 discriminator 3
 184 0040 35F81400 		ldrh	r0, [r5, r4, lsl #1]
 185 0044 FFF7FEFF 		bl	RGB_PWM_Green_WriteCompare
 186              	.LVL28:
 138:source\bsw\labboard/led.c ****             RGB_PWM_Red_WriteCompare(0);                                    // Red stays off
 187              		.loc 1 138 0 discriminator 3
 188 0048 0020     		movs	r0, #0
 189 004a FFF7FEFF 		bl	RGB_PWM_Red_WriteCompare
 190              	.LVL29:
 139:source\bsw\labboard/led.c ****             CyDelay(5);
 191              		.loc 1 139 0 discriminator 3
 192 004e 0520     		movs	r0, #5
 193 0050 FFF7FEFF 		bl	CyDelay
 194              	.LVL30:
 135:source\bsw\labboard/led.c ****             RGB_PWM_Yellow_WriteCompare(LED__Pulse_Width[fadeSteps - 1 - i]); // Yellow fades out
 195              		.loc 1 135 0 discriminator 3
ARM GAS  C:\Users\abhim\AppData\Local\Temp\ccNxqdys.s 			page 7


 196 0054 0134     		adds	r4, r4, #1
 197              	.LVL31:
 198              	.L12:
 135:source\bsw\labboard/led.c ****             RGB_PWM_Yellow_WriteCompare(LED__Pulse_Width[fadeSteps - 1 - i]); // Yellow fades out
 199              		.loc 1 135 0 is_stmt 0 discriminator 1
 200 0056 FF2C     		cmp	r4, #255
 201 0058 EBD9     		bls	.L13
 202 005a 0024     		movs	r4, #0
 203              	.LVL32:
 204 005c 11E0     		b	.L14
 205              	.LVL33:
 206              	.L15:
 140:source\bsw\labboard/led.c ****         }
 141:source\bsw\labboard/led.c **** 
 142:source\bsw\labboard/led.c ****         // Transition: Green fades out, Red fades in
 143:source\bsw\labboard/led.c ****         for (i = 0; i < fadeSteps; ++i) {
 144:source\bsw\labboard/led.c ****             RGB_PWM_Green_WriteCompare(LED__Pulse_Width[fadeSteps - 1 - i]); // Green fades out
 207              		.loc 1 144 0 is_stmt 1 discriminator 3
 208 005e C4F1FF03 		rsb	r3, r4, #255
 209 0062 094D     		ldr	r5, .L17
 210 0064 35F81300 		ldrh	r0, [r5, r3, lsl #1]
 211 0068 FFF7FEFF 		bl	RGB_PWM_Green_WriteCompare
 212              	.LVL34:
 145:source\bsw\labboard/led.c ****             RGB_PWM_Red_WriteCompare(LED__Pulse_Width[i]);                 // Red fades in
 213              		.loc 1 145 0 discriminator 3
 214 006c 35F81400 		ldrh	r0, [r5, r4, lsl #1]
 215 0070 FFF7FEFF 		bl	RGB_PWM_Red_WriteCompare
 216              	.LVL35:
 146:source\bsw\labboard/led.c ****             RGB_PWM_Yellow_WriteCompare(0);                                // Yellow stays off
 217              		.loc 1 146 0 discriminator 3
 218 0074 0020     		movs	r0, #0
 219 0076 FFF7FEFF 		bl	RGB_PWM_Yellow_WriteCompare
 220              	.LVL36:
 147:source\bsw\labboard/led.c ****             CyDelay(5);
 221              		.loc 1 147 0 discriminator 3
 222 007a 0520     		movs	r0, #5
 223 007c FFF7FEFF 		bl	CyDelay
 224              	.LVL37:
 143:source\bsw\labboard/led.c ****             RGB_PWM_Green_WriteCompare(LED__Pulse_Width[fadeSteps - 1 - i]); // Green fades out
 225              		.loc 1 143 0 discriminator 3
 226 0080 0134     		adds	r4, r4, #1
 227              	.LVL38:
 228              	.L14:
 143:source\bsw\labboard/led.c ****             RGB_PWM_Green_WriteCompare(LED__Pulse_Width[fadeSteps - 1 - i]); // Green fades out
 229              		.loc 1 143 0 is_stmt 0 discriminator 1
 230 0082 FF2C     		cmp	r4, #255
 231 0084 EBD9     		bls	.L15
 148:source\bsw\labboard/led.c ****         }
 149:source\bsw\labboard/led.c ****         
 150:source\bsw\labboard/led.c **** }
 232              		.loc 1 150 0 is_stmt 1
 233 0086 38BD     		pop	{r3, r4, r5, pc}
 234              	.LVL39:
 235              	.L18:
 236              		.align	2
 237              	.L17:
 238 0088 00000000 		.word	.LANCHOR0
ARM GAS  C:\Users\abhim\AppData\Local\Temp\ccNxqdys.s 			page 8


 239              		.cfi_endproc
 240              	.LFE113:
 241              		.size	LED_fadeEffect, .-LED_fadeEffect
 242              		.section	.text.playGlowSequence,"ax",%progbits
 243              		.align	2
 244              		.global	playGlowSequence
 245              		.thumb
 246              		.thumb_func
 247              		.type	playGlowSequence, %function
 248              	playGlowSequence:
 249              	.LFB114:
 151:source\bsw\labboard/led.c **** 
 152:source\bsw\labboard/led.c **** void playGlowSequence(const RG_Glow_t* glowTable, size_t length) {
 250              		.loc 1 152 0
 251              		.cfi_startproc
 252              		@ args = 0, pretend = 0, frame = 0
 253              		@ frame_needed = 0, uses_anonymous_args = 0
 254              	.LVL40:
 255 0000 F8B5     		push	{r3, r4, r5, r6, r7, lr}
 256              		.cfi_def_cfa_offset 24
 257              		.cfi_offset 3, -24
 258              		.cfi_offset 4, -20
 259              		.cfi_offset 5, -16
 260              		.cfi_offset 6, -12
 261              		.cfi_offset 7, -8
 262              		.cfi_offset 14, -4
 263 0002 0646     		mov	r6, r0
 264 0004 0F46     		mov	r7, r1
 265              	.LVL41:
 266              	.LBB2:
 153:source\bsw\labboard/led.c ****     for (size_t i = 0; i < length; ++i) {
 267              		.loc 1 153 0
 268 0006 0024     		movs	r4, #0
 269 0008 10E0     		b	.L20
 270              	.LVL42:
 271              	.L21:
 154:source\bsw\labboard/led.c ****         // Set the RGB values
 155:source\bsw\labboard/led.c ****         RGB_PWM_Red_1_WriteCompare(glowTable[i].red);
 272              		.loc 1 155 0 discriminator 3
 273 000a 04EB4402 		add	r2, r4, r4, lsl #1
 274 000e 5300     		lsls	r3, r2, #1
 275 0010 F518     		adds	r5, r6, r3
 276 0012 F05C     		ldrb	r0, [r6, r3]	@ zero_extendqisi2
 277 0014 FFF7FEFF 		bl	RGB_PWM_Red_1_WriteCompare
 278              	.LVL43:
 156:source\bsw\labboard/led.c ****         RGB_PWM_Green_1_WriteCompare(glowTable[i].green);
 279              		.loc 1 156 0 discriminator 3
 280 0018 6878     		ldrb	r0, [r5, #1]	@ zero_extendqisi2
 281 001a FFF7FEFF 		bl	RGB_PWM_Green_1_WriteCompare
 282              	.LVL44:
 157:source\bsw\labboard/led.c ****         RGB_PWM_Yellow_1_WriteCompare(glowTable[i].blue);
 283              		.loc 1 157 0 discriminator 3
 284 001e A878     		ldrb	r0, [r5, #2]	@ zero_extendqisi2
 285 0020 FFF7FEFF 		bl	RGB_PWM_Yellow_1_WriteCompare
 286              	.LVL45:
 158:source\bsw\labboard/led.c **** 
 159:source\bsw\labboard/led.c ****         // Wait for the specified duration
ARM GAS  C:\Users\abhim\AppData\Local\Temp\ccNxqdys.s 			page 9


 160:source\bsw\labboard/led.c ****         CyDelay(glowTable[i].time);
 287              		.loc 1 160 0 discriminator 3
 288 0024 A888     		ldrh	r0, [r5, #4]
 289 0026 FFF7FEFF 		bl	CyDelay
 290              	.LVL46:
 153:source\bsw\labboard/led.c ****         // Set the RGB values
 291              		.loc 1 153 0 discriminator 3
 292 002a 0134     		adds	r4, r4, #1
 293              	.LVL47:
 294              	.L20:
 153:source\bsw\labboard/led.c ****         // Set the RGB values
 295              		.loc 1 153 0 is_stmt 0 discriminator 1
 296 002c BC42     		cmp	r4, r7
 297 002e ECD3     		bcc	.L21
 298              	.LBE2:
 161:source\bsw\labboard/led.c ****          //SetRelAlarm(alrm_glwrDelay, glowTable[i].time,0);
 162:source\bsw\labboard/led.c ****     }
 163:source\bsw\labboard/led.c **** }
 299              		.loc 1 163 0 is_stmt 1
 300 0030 F8BD     		pop	{r3, r4, r5, r6, r7, pc}
 301              		.cfi_endproc
 302              	.LFE114:
 303              		.size	playGlowSequence, .-playGlowSequence
 304 0032 00BF     		.section	.text.stopFaderGlower,"ax",%progbits
 305              		.align	2
 306              		.global	stopFaderGlower
 307              		.thumb
 308              		.thumb_func
 309              		.type	stopFaderGlower, %function
 310              	stopFaderGlower:
 311              	.LFB115:
 164:source\bsw\labboard/led.c **** 
 165:source\bsw\labboard/led.c **** void stopFaderGlower(){
 312              		.loc 1 165 0
 313              		.cfi_startproc
 314              		@ args = 0, pretend = 0, frame = 0
 315              		@ frame_needed = 0, uses_anonymous_args = 0
 316 0000 08B5     		push	{r3, lr}
 317              		.cfi_def_cfa_offset 8
 318              		.cfi_offset 3, -8
 319              		.cfi_offset 14, -4
 166:source\bsw\labboard/led.c ****     RGB_PWM_Red_Stop();
 320              		.loc 1 166 0
 321 0002 FFF7FEFF 		bl	RGB_PWM_Red_Stop
 322              	.LVL48:
 167:source\bsw\labboard/led.c ****     RGB_PWM_Yellow_Stop();
 323              		.loc 1 167 0
 324 0006 FFF7FEFF 		bl	RGB_PWM_Yellow_Stop
 325              	.LVL49:
 168:source\bsw\labboard/led.c ****     RGB_PWM_Green_Stop();
 326              		.loc 1 168 0
 327 000a FFF7FEFF 		bl	RGB_PWM_Green_Stop
 328              	.LVL50:
 169:source\bsw\labboard/led.c ****             
 170:source\bsw\labboard/led.c ****     RGB_PWM_Red_WriteCompare(0);
 329              		.loc 1 170 0
 330 000e 0020     		movs	r0, #0
ARM GAS  C:\Users\abhim\AppData\Local\Temp\ccNxqdys.s 			page 10


 331 0010 FFF7FEFF 		bl	RGB_PWM_Red_WriteCompare
 332              	.LVL51:
 171:source\bsw\labboard/led.c ****     RGB_PWM_Yellow_WriteCompare(0);
 333              		.loc 1 171 0
 334 0014 0020     		movs	r0, #0
 335 0016 FFF7FEFF 		bl	RGB_PWM_Yellow_WriteCompare
 336              	.LVL52:
 172:source\bsw\labboard/led.c ****     RGB_PWM_Green_WriteCompare(0);
 337              		.loc 1 172 0
 338 001a 0020     		movs	r0, #0
 339 001c FFF7FEFF 		bl	RGB_PWM_Green_WriteCompare
 340              	.LVL53:
 173:source\bsw\labboard/led.c ****             
 174:source\bsw\labboard/led.c ****     RGB_PWM_Red_1_Stop();
 341              		.loc 1 174 0
 342 0020 FFF7FEFF 		bl	RGB_PWM_Red_1_Stop
 343              	.LVL54:
 175:source\bsw\labboard/led.c ****     RGB_PWM_Yellow_1_Stop();
 344              		.loc 1 175 0
 345 0024 FFF7FEFF 		bl	RGB_PWM_Yellow_1_Stop
 346              	.LVL55:
 176:source\bsw\labboard/led.c ****     RGB_PWM_Green_1_Stop();
 347              		.loc 1 176 0
 348 0028 FFF7FEFF 		bl	RGB_PWM_Green_1_Stop
 349              	.LVL56:
 177:source\bsw\labboard/led.c ****             
 178:source\bsw\labboard/led.c ****     RGB_PWM_Red_1_WriteCompare(0);
 350              		.loc 1 178 0
 351 002c 0020     		movs	r0, #0
 352 002e FFF7FEFF 		bl	RGB_PWM_Red_1_WriteCompare
 353              	.LVL57:
 179:source\bsw\labboard/led.c ****     RGB_PWM_Yellow_1_WriteCompare(0);
 354              		.loc 1 179 0
 355 0032 0020     		movs	r0, #0
 356 0034 FFF7FEFF 		bl	RGB_PWM_Yellow_1_WriteCompare
 357              	.LVL58:
 180:source\bsw\labboard/led.c ****     RGB_PWM_Green_1_WriteCompare(0);
 358              		.loc 1 180 0
 359 0038 0020     		movs	r0, #0
 360 003a FFF7FEFF 		bl	RGB_PWM_Green_1_WriteCompare
 361              	.LVL59:
 362 003e 08BD     		pop	{r3, pc}
 363              		.cfi_endproc
 364              	.LFE115:
 365              		.size	stopFaderGlower, .-stopFaderGlower
 366              		.global	RG_glowtable_1_len
 367              		.global	RG_glowtable_1
 368              		.section	.rodata
 369              		.align	2
 370              		.set	.LANCHOR0,. + 0
 371              		.type	LED__Pulse_Width, %object
 372              		.size	LED__Pulse_Width, 512
 373              	LED__Pulse_Width:
 374 0000 0000     		.short	0
 375 0002 0100     		.short	1
 376 0004 0100     		.short	1
 377 0006 0100     		.short	1
ARM GAS  C:\Users\abhim\AppData\Local\Temp\ccNxqdys.s 			page 11


 378 0008 0100     		.short	1
 379 000a 0100     		.short	1
 380 000c 0100     		.short	1
 381 000e 0100     		.short	1
 382 0010 0100     		.short	1
 383 0012 0200     		.short	2
 384 0014 0200     		.short	2
 385 0016 0200     		.short	2
 386 0018 0200     		.short	2
 387 001a 0200     		.short	2
 388 001c 0200     		.short	2
 389 001e 0200     		.short	2
 390 0020 0200     		.short	2
 391 0022 0200     		.short	2
 392 0024 0200     		.short	2
 393 0026 0200     		.short	2
 394 0028 0200     		.short	2
 395 002a 0300     		.short	3
 396 002c 0300     		.short	3
 397 002e 0300     		.short	3
 398 0030 0300     		.short	3
 399 0032 0300     		.short	3
 400 0034 0300     		.short	3
 401 0036 0300     		.short	3
 402 0038 0400     		.short	4
 403 003a 0400     		.short	4
 404 003c 0400     		.short	4
 405 003e 0400     		.short	4
 406 0040 0400     		.short	4
 407 0042 0400     		.short	4
 408 0044 0500     		.short	5
 409 0046 0500     		.short	5
 410 0048 0500     		.short	5
 411 004a 0500     		.short	5
 412 004c 0500     		.short	5
 413 004e 0600     		.short	6
 414 0050 0600     		.short	6
 415 0052 0600     		.short	6
 416 0054 0600     		.short	6
 417 0056 0700     		.short	7
 418 0058 0700     		.short	7
 419 005a 0700     		.short	7
 420 005c 0800     		.short	8
 421 005e 0800     		.short	8
 422 0060 0800     		.short	8
 423 0062 0900     		.short	9
 424 0064 0900     		.short	9
 425 0066 0A00     		.short	10
 426 0068 0A00     		.short	10
 427 006a 0A00     		.short	10
 428 006c 0B00     		.short	11
 429 006e 0B00     		.short	11
 430 0070 0C00     		.short	12
 431 0072 0C00     		.short	12
 432 0074 0D00     		.short	13
 433 0076 0D00     		.short	13
 434 0078 0E00     		.short	14
ARM GAS  C:\Users\abhim\AppData\Local\Temp\ccNxqdys.s 			page 12


 435 007a 0F00     		.short	15
 436 007c 0F00     		.short	15
 437 007e 1000     		.short	16
 438 0080 1100     		.short	17
 439 0082 1100     		.short	17
 440 0084 1200     		.short	18
 441 0086 1300     		.short	19
 442 0088 1400     		.short	20
 443 008a 1500     		.short	21
 444 008c 1600     		.short	22
 445 008e 1700     		.short	23
 446 0090 1800     		.short	24
 447 0092 1900     		.short	25
 448 0094 1A00     		.short	26
 449 0096 1B00     		.short	27
 450 0098 1C00     		.short	28
 451 009a 1D00     		.short	29
 452 009c 1F00     		.short	31
 453 009e 2000     		.short	32
 454 00a0 2100     		.short	33
 455 00a2 2300     		.short	35
 456 00a4 2400     		.short	36
 457 00a6 2600     		.short	38
 458 00a8 2800     		.short	40
 459 00aa 2900     		.short	41
 460 00ac 2B00     		.short	43
 461 00ae 2D00     		.short	45
 462 00b0 2F00     		.short	47
 463 00b2 3100     		.short	49
 464 00b4 3400     		.short	52
 465 00b6 3600     		.short	54
 466 00b8 3800     		.short	56
 467 00ba 3B00     		.short	59
 468 00bc 3D00     		.short	61
 469 00be 4000     		.short	64
 470 00c0 4300     		.short	67
 471 00c2 4600     		.short	70
 472 00c4 4900     		.short	73
 473 00c6 4C00     		.short	76
 474 00c8 4F00     		.short	79
 475 00ca 5300     		.short	83
 476 00cc 5700     		.short	87
 477 00ce 5B00     		.short	91
 478 00d0 5F00     		.short	95
 479 00d2 6300     		.short	99
 480 00d4 6700     		.short	103
 481 00d6 6C00     		.short	108
 482 00d8 7000     		.short	112
 483 00da 7500     		.short	117
 484 00dc 7B00     		.short	123
 485 00de 8000     		.short	128
 486 00e0 8600     		.short	134
 487 00e2 8C00     		.short	140
 488 00e4 9200     		.short	146
 489 00e6 9800     		.short	152
 490 00e8 9F00     		.short	159
 491 00ea A600     		.short	166
ARM GAS  C:\Users\abhim\AppData\Local\Temp\ccNxqdys.s 			page 13


 492 00ec AD00     		.short	173
 493 00ee B500     		.short	181
 494 00f0 BD00     		.short	189
 495 00f2 C500     		.short	197
 496 00f4 CE00     		.short	206
 497 00f6 D700     		.short	215
 498 00f8 E100     		.short	225
 499 00fa EB00     		.short	235
 500 00fc F500     		.short	245
 501 00fe 0001     		.short	256
 502 0100 0B01     		.short	267
 503 0102 1701     		.short	279
 504 0104 2401     		.short	292
 505 0106 3001     		.short	304
 506 0108 3E01     		.short	318
 507 010a 4C01     		.short	332
 508 010c 5B01     		.short	347
 509 010e 6A01     		.short	362
 510 0110 7A01     		.short	378
 511 0112 8B01     		.short	395
 512 0114 9C01     		.short	412
 513 0116 AF01     		.short	431
 514 0118 C201     		.short	450
 515 011a D601     		.short	470
 516 011c EA01     		.short	490
 517 011e 0002     		.short	512
 518 0120 1702     		.short	535
 519 0122 2E02     		.short	558
 520 0124 4702     		.short	583
 521 0126 6102     		.short	609
 522 0128 7C02     		.short	636
 523 012a 9802     		.short	664
 524 012c B502     		.short	693
 525 012e D402     		.short	724
 526 0130 F402     		.short	756
 527 0132 1603     		.short	790
 528 0134 3903     		.short	825
 529 0136 5D03     		.short	861
 530 0138 8303     		.short	899
 531 013a AB03     		.short	939
 532 013c D503     		.short	981
 533 013e 0004     		.short	1024
 534 0140 2D04     		.short	1069
 535 0142 5D04     		.short	1117
 536 0144 8E04     		.short	1166
 537 0146 C204     		.short	1218
 538 0148 F804     		.short	1272
 539 014a 3005     		.short	1328
 540 014c 6B05     		.short	1387
 541 014e A805     		.short	1448
 542 0150 E805     		.short	1512
 543 0152 2B06     		.short	1579
 544 0154 7106     		.short	1649
 545 0156 BA06     		.short	1722
 546 0158 0607     		.short	1798
 547 015a 5607     		.short	1878
 548 015c A907     		.short	1961
ARM GAS  C:\Users\abhim\AppData\Local\Temp\ccNxqdys.s 			page 14


 549 015e 0008     		.short	2048
 550 0160 5B08     		.short	2139
 551 0162 B908     		.short	2233
 552 0164 1C09     		.short	2332
 553 0166 8309     		.short	2435
 554 0168 EF09     		.short	2543
 555 016a 600A     		.short	2656
 556 016c D50A     		.short	2773
 557 016e 500B     		.short	2896
 558 0170 D10B     		.short	3025
 559 0172 560C     		.short	3158
 560 0174 E20C     		.short	3298
 561 0176 740D     		.short	3444
 562 0178 0D0E     		.short	3597
 563 017a AC0E     		.short	3756
 564 017c 520F     		.short	3922
 565 017e 0010     		.short	4096
 566 0180 B510     		.short	4277
 567 0182 7311     		.short	4467
 568 0184 3812     		.short	4664
 569 0186 0713     		.short	4871
 570 0188 DF13     		.short	5087
 571 018a C014     		.short	5312
 572 018c AB15     		.short	5547
 573 018e A116     		.short	5793
 574 0190 A117     		.short	6049
 575 0192 AD18     		.short	6317
 576 0194 C419     		.short	6596
 577 0196 E91A     		.short	6889
 578 0198 1A1C     		.short	7194
 579 019a 581D     		.short	7512
 580 019c A51E     		.short	7845
 581 019e 0020     		.short	8192
 582 01a0 6B21     		.short	8555
 583 01a2 E522     		.short	8933
 584 01a4 7124     		.short	9329
 585 01a6 0E26     		.short	9742
 586 01a8 BD27     		.short	10173
 587 01aa 8029     		.short	10624
 588 01ac 562B     		.short	11094
 589 01ae 412D     		.short	11585
 590 01b0 422F     		.short	12098
 591 01b2 5A31     		.short	12634
 592 01b4 8933     		.short	13193
 593 01b6 D135     		.short	13777
 594 01b8 3338     		.short	14387
 595 01ba B03A     		.short	15024
 596 01bc 493D     		.short	15689
 597 01be 0040     		.short	16384
 598 01c0 D542     		.short	17109
 599 01c2 CB45     		.short	17867
 600 01c4 E248     		.short	18658
 601 01c6 1C4C     		.short	19484
 602 01c8 7A4F     		.short	20346
 603 01ca FF52     		.short	21247
 604 01cc AC56     		.short	22188
 605 01ce 825A     		.short	23170
ARM GAS  C:\Users\abhim\AppData\Local\Temp\ccNxqdys.s 			page 15


 606 01d0 845E     		.short	24196
 607 01d2 B362     		.short	25267
 608 01d4 1267     		.short	26386
 609 01d6 A26B     		.short	27554
 610 01d8 6670     		.short	28774
 611 01da 6075     		.short	30048
 612 01dc 927A     		.short	31378
 613 01de 0080     		.short	-32768
 614 01e0 AA85     		.short	-31318
 615 01e2 958B     		.short	-29803
 616 01e4 C391     		.short	-28221
 617 01e6 3798     		.short	-26569
 618 01e8 F59E     		.short	-24843
 619 01ea FEA5     		.short	-23042
 620 01ec 58AD     		.short	-21160
 621 01ee 04B5     		.short	-19196
 622 01f0 08BD     		.short	-17144
 623 01f2 66C5     		.short	-15002
 624 01f4 24CE     		.short	-12764
 625 01f6 44D7     		.short	-10428
 626 01f8 CCE0     		.short	-7988
 627 01fa C0EA     		.short	-5440
 628 01fc 25F5     		.short	-2779
 629 01fe FFFF     		.short	-1
 630              		.type	RG_glowtable_1_len, %object
 631              		.size	RG_glowtable_1_len, 4
 632              	RG_glowtable_1_len:
 633 0200 09000000 		.word	9
 634              		.type	RG_glowtable_1, %object
 635              		.size	RG_glowtable_1, 54
 636              	RG_glowtable_1:
 637 0204 FF       		.byte	-1
 638 0205 00       		.byte	0
 639 0206 00       		.byte	0
 640 0207 00       		.space	1
 641 0208 F401     		.short	500
 642 020a 00       		.byte	0
 643 020b FF       		.byte	-1
 644 020c 00       		.byte	0
 645 020d 00       		.space	1
 646 020e F401     		.short	500
 647 0210 00       		.byte	0
 648 0211 00       		.byte	0
 649 0212 FF       		.byte	-1
 650 0213 00       		.space	1
 651 0214 F401     		.short	500
 652 0216 00       		.byte	0
 653 0217 00       		.byte	0
 654 0218 00       		.byte	0
 655 0219 00       		.space	1
 656 021a 6400     		.short	100
 657 021c FF       		.byte	-1
 658 021d FF       		.byte	-1
 659 021e FF       		.byte	-1
 660 021f 00       		.space	1
 661 0220 6400     		.short	100
 662 0222 00       		.byte	0
ARM GAS  C:\Users\abhim\AppData\Local\Temp\ccNxqdys.s 			page 16


 663 0223 00       		.byte	0
 664 0224 00       		.byte	0
 665 0225 00       		.space	1
 666 0226 6400     		.short	100
 667 0228 FF       		.byte	-1
 668 0229 FF       		.byte	-1
 669 022a FF       		.byte	-1
 670 022b 00       		.space	1
 671 022c 6400     		.short	100
 672 022e 00       		.byte	0
 673 022f 00       		.byte	0
 674 0230 00       		.byte	0
 675 0231 00       		.space	1
 676 0232 6400     		.short	100
 677 0234 FF       		.byte	-1
 678 0235 FF       		.byte	-1
 679 0236 FF       		.byte	-1
 680 0237 00       		.space	1
 681 0238 6400     		.short	100
 682              		.text
 683              	.Letext0:
 684              		.file 2 "c:\\program files (x86)\\cypress\\psoc creator\\4.4\\psoc creator\\import\\gnu\\arm\\5.4.
 685              		.file 3 "c:\\program files (x86)\\cypress\\psoc creator\\4.4\\psoc creator\\import\\gnu\\arm\\5.4.
 686              		.file 4 "Generated_Source\\PSoC5/cytypes.h"
 687              		.file 5 "c:\\program files (x86)\\cypress\\psoc creator\\4.4\\psoc creator\\import\\gnu\\arm\\5.4.
 688              		.file 6 "Generated_Source\\PSoC5/ErikaOS_1_common_ee_types.inc"
 689              		.file 7 "Generated_Source\\PSoC5/ErikaOS_1_cortex_mx_ee_cpu.inc"
 690              		.file 8 "source\\bsw\\labboard\\led.h"
 691              		.file 9 "Generated_Source\\PSoC5/ErikaOS_1_ee_oo_intfunc.inc"
 692              		.file 10 "Generated_Source\\PSoC5/ErikaOS_1_cortex_mx_ee_context.inc"
 693              		.file 11 "Generated_Source\\PSoC5/ErikaOS_1_common_ee_primitives.inc"
 694              		.file 12 "Generated_Source\\PSoC5/core_cm3.h"
 695              		.file 13 "Generated_Source\\PSoC5/LED_red.h"
 696              		.file 14 "Generated_Source\\PSoC5/LED_Yellow.h"
 697              		.file 15 "Generated_Source\\PSoC5/LED_green.h"
 698              		.file 16 "Generated_Source\\PSoC5/RGB_PWM_Yellow.h"
 699              		.file 17 "Generated_Source\\PSoC5/RGB_PWM_Green.h"
 700              		.file 18 "Generated_Source\\PSoC5/RGB_PWM_Red.h"
 701              		.file 19 "Generated_Source\\PSoC5/CyLib.h"
 702              		.file 20 "Generated_Source\\PSoC5/RGB_PWM_Red_1.h"
 703              		.file 21 "Generated_Source\\PSoC5/RGB_PWM_Green_1.h"
 704              		.file 22 "Generated_Source\\PSoC5/RGB_PWM_Yellow_1.h"