ARM GAS  C:\Users\abhim\AppData\Local\Temp\ccdFcH6e.s 			page 1


   1              		.syntax unified
   2              		.cpu cortex-m3
   3              		.fpu softvfp
   4              		.eabi_attribute 20, 1
   5              		.eabi_attribute 21, 1
   6              		.eabi_attribute 23, 3
   7              		.eabi_attribute 24, 1
   8              		.eabi_attribute 25, 1
   9              		.eabi_attribute 26, 1
  10              		.eabi_attribute 30, 1
  11              		.eabi_attribute 34, 1
  12              		.eabi_attribute 18, 4
  13              		.thumb
  14              		.syntax unified
  15              		.file	"sevenSegment.c"
  16              		.text
  17              	.Ltext0:
  18              		.cfi_sections	.debug_frame
  19              		.section	.text.sevenSegmentDisplay,"ax",%progbits
  20              		.align	2
  21              		.global	sevenSegmentDisplay
  22              		.thumb
  23              		.thumb_func
  24              		.type	sevenSegmentDisplay, %function
  25              	sevenSegmentDisplay:
  26              	.LFB112:
  27              		.file 1 "source\\bsw\\labboard\\sevenSegment.c"
   1:source\bsw\labboard/sevenSegment.c **** /**
   2:source\bsw\labboard/sevenSegment.c **** * \file <filename>
   3:source\bsw\labboard/sevenSegment.c **** * \author <author-name>
   4:source\bsw\labboard/sevenSegment.c **** * \date <date>
   5:source\bsw\labboard/sevenSegment.c **** *
   6:source\bsw\labboard/sevenSegment.c **** * \brief <Symbolic File name>
   7:source\bsw\labboard/sevenSegment.c **** *
   8:source\bsw\labboard/sevenSegment.c **** * \copyright Copyright ©2016
   9:source\bsw\labboard/sevenSegment.c **** * Department of electrical engineering and information technology, Hochschule Darmstadt - Universit
  10:source\bsw\labboard/sevenSegment.c **** * Permission to use, copy, modify, and distribute this software and its documentation for education
  11:source\bsw\labboard/sevenSegment.c **** * (unless permitted by h_da) and official h_da projects, is hereby granted for enrolled students of
  12:source\bsw\labboard/sevenSegment.c **** * this paragraph and the following paragraph appear in all copies, modifications, and distributions
  13:source\bsw\labboard/sevenSegment.c **** * Contact Prof.Dr.-Ing. Peter Fromm, peter.fromm@h-da.de, Birkenweg 8 64295 Darmstadt - GERMANY for
  14:source\bsw\labboard/sevenSegment.c **** *
  15:source\bsw\labboard/sevenSegment.c **** * \warning This software is a PROTOTYPE version and is not designed or intended for use in producti
  16:source\bsw\labboard/sevenSegment.c **** * The user represents and warrants that it will NOT use or redistribute the Software for such purpo
  17:source\bsw\labboard/sevenSegment.c **** * This prototype is for research purposes only. This software is provided "AS IS," without a warran
  18:source\bsw\labboard/sevenSegment.c **** */
  19:source\bsw\labboard/sevenSegment.c **** 
  20:source\bsw\labboard/sevenSegment.c **** /*****************************************************************************/
  21:source\bsw\labboard/sevenSegment.c **** /* Include files                                                             */
  22:source\bsw\labboard/sevenSegment.c **** /*****************************************************************************/
  23:source\bsw\labboard/sevenSegment.c **** 
  24:source\bsw\labboard/sevenSegment.c **** #include "sevenSegment.h"
  25:source\bsw\labboard/sevenSegment.c **** 
  26:source\bsw\labboard/sevenSegment.c **** /*****************************************************************************/
  27:source\bsw\labboard/sevenSegment.c **** /* Local pre-processor symbols/macros ('#define')                            */
  28:source\bsw\labboard/sevenSegment.c **** /*****************************************************************************/
  29:source\bsw\labboard/sevenSegment.c **** 
  30:source\bsw\labboard/sevenSegment.c **** /*****************************************************************************/
ARM GAS  C:\Users\abhim\AppData\Local\Temp\ccdFcH6e.s 			page 2


  31:source\bsw\labboard/sevenSegment.c **** /* Global variable definitions (declared in header file with 'extern')       */
  32:source\bsw\labboard/sevenSegment.c **** /*****************************************************************************/
  33:source\bsw\labboard/sevenSegment.c **** 
  34:source\bsw\labboard/sevenSegment.c **** /*****************************************************************************/
  35:source\bsw\labboard/sevenSegment.c **** /* Local type definitions ('typedef')                                        */
  36:source\bsw\labboard/sevenSegment.c **** /*****************************************************************************/
  37:source\bsw\labboard/sevenSegment.c **** 
  38:source\bsw\labboard/sevenSegment.c **** /*****************************************************************************/
  39:source\bsw\labboard/sevenSegment.c **** /* Local variable definitions ('static')                                     */
  40:source\bsw\labboard/sevenSegment.c **** /*****************************************************************************/
  41:source\bsw\labboard/sevenSegment.c **** 
  42:source\bsw\labboard/sevenSegment.c **** 
  43:source\bsw\labboard/sevenSegment.c **** 
  44:source\bsw\labboard/sevenSegment.c **** /*****************************************************************************/
  45:source\bsw\labboard/sevenSegment.c **** /* Local function prototypes ('static')                                      */
  46:source\bsw\labboard/sevenSegment.c **** /*****************************************************************************/
  47:source\bsw\labboard/sevenSegment.c **** 
  48:source\bsw\labboard/sevenSegment.c **** 
  49:source\bsw\labboard/sevenSegment.c **** /*****************************************************************************/
  50:source\bsw\labboard/sevenSegment.c **** /* Function implementation - global ('extern') and local ('static')          */
  51:source\bsw\labboard/sevenSegment.c **** /*****************************************************************************/
  52:source\bsw\labboard/sevenSegment.c **** 
  53:source\bsw\labboard/sevenSegment.c **** /**
  54:source\bsw\labboard/sevenSegment.c ****  * <Description>
  55:source\bsw\labboard/sevenSegment.c ****  * \param <first para>
  56:source\bsw\labboard/sevenSegment.c ****  * \return <return value>
  57:source\bsw\labboard/sevenSegment.c ****  */
  58:source\bsw\labboard/sevenSegment.c **** //RC_t FILE_function(type para)
  59:source\bsw\labboard/sevenSegment.c **** 
  60:source\bsw\labboard/sevenSegment.c **** 
  61:source\bsw\labboard/sevenSegment.c **** RC_t sevenSegmentInit(){
  62:source\bsw\labboard/sevenSegment.c ****     Pin_SelA_Write(1);
  63:source\bsw\labboard/sevenSegment.c ****     uint8_t bitPattern = 0b00111111;
  64:source\bsw\labboard/sevenSegment.c ****     sevenSegmentDisplay(bitPattern);
  65:source\bsw\labboard/sevenSegment.c ****     Pin_SelA_Write(0);
  66:source\bsw\labboard/sevenSegment.c ****     sevenSegmentDisplay(bitPattern);
  67:source\bsw\labboard/sevenSegment.c ****     return RC_SUCCESS;
  68:source\bsw\labboard/sevenSegment.c **** }
  69:source\bsw\labboard/sevenSegment.c **** 
  70:source\bsw\labboard/sevenSegment.c **** //RC_t randomNumGenerate(){
  71:source\bsw\labboard/sevenSegment.c **** //    Pin_SelA_Write(1);
  72:source\bsw\labboard/sevenSegment.c **** //     char buffer[128];
  73:source\bsw\labboard/sevenSegment.c **** //    uint8_t bitPattern = 0b00111111;
  74:source\bsw\labboard/sevenSegment.c **** //    sevenSegmentDisplay(bitPattern);
  75:source\bsw\labboard/sevenSegment.c **** //    extern unsigned short randomNum;
  76:source\bsw\labboard/sevenSegment.c **** //    unsigned short randomNumber = (rand()%2 +1);
  77:source\bsw\labboard/sevenSegment.c **** //    randomNum = randomNumber;
  78:source\bsw\labboard/sevenSegment.c **** //    Pin_SelA_Write(0);
  79:source\bsw\labboard/sevenSegment.c **** //    
  80:source\bsw\labboard/sevenSegment.c **** //    if(randomNumber == 1){
  81:source\bsw\labboard/sevenSegment.c **** //        bitPattern = 0b00000110;
  82:source\bsw\labboard/sevenSegment.c **** //        sevenSegmentDisplay(bitPattern);
  83:source\bsw\labboard/sevenSegment.c **** //        game.startTime = systickCounter;
  84:source\bsw\labboard/sevenSegment.c **** //        sprintf(buffer + strlen(buffer), "SysTick timer = %d \r\n", systickCounter);
  85:source\bsw\labboard/sevenSegment.c **** //        UART_LOG_PutString(buffer);
  86:source\bsw\labboard/sevenSegment.c **** //        return RC_SUCCESS;
  87:source\bsw\labboard/sevenSegment.c **** //    }else if(randomNumber == 2){
ARM GAS  C:\Users\abhim\AppData\Local\Temp\ccdFcH6e.s 			page 3


  88:source\bsw\labboard/sevenSegment.c **** //        bitPattern = 0b01011011;
  89:source\bsw\labboard/sevenSegment.c **** //        sevenSegmentDisplay(bitPattern);
  90:source\bsw\labboard/sevenSegment.c **** //        game.startTime = systickCounter;
  91:source\bsw\labboard/sevenSegment.c **** //        sprintf(buffer + strlen(buffer), "SysTick timer = %d \r\n", systickCounter);
  92:source\bsw\labboard/sevenSegment.c **** //        UART_LOG_PutString(buffer);
  93:source\bsw\labboard/sevenSegment.c **** //        return RC_SUCCESS;
  94:source\bsw\labboard/sevenSegment.c **** //    }else{
  95:source\bsw\labboard/sevenSegment.c **** //        return RC_ERROR;
  96:source\bsw\labboard/sevenSegment.c **** //    }
  97:source\bsw\labboard/sevenSegment.c **** //}
  98:source\bsw\labboard/sevenSegment.c **** 
  99:source\bsw\labboard/sevenSegment.c **** RC_t sevenSegmentDisplay(uint8_t bitPattern){
  28              		.loc 1 99 0
  29              		.cfi_startproc
  30              		@ args = 0, pretend = 0, frame = 0
  31              		@ frame_needed = 0, uses_anonymous_args = 0
  32              	.LVL0:
  33 0000 10B5     		push	{r4, lr}
  34              		.cfi_def_cfa_offset 8
  35              		.cfi_offset 4, -8
  36              		.cfi_offset 14, -4
  37 0002 0446     		mov	r4, r0
 100:source\bsw\labboard/sevenSegment.c ****     Pin_A_Write(bitPattern & 0x01);
  38              		.loc 1 100 0
  39 0004 00F00100 		and	r0, r0, #1
  40              	.LVL1:
  41 0008 FFF7FEFF 		bl	Pin_A_Write
  42              	.LVL2:
 101:source\bsw\labboard/sevenSegment.c ****     Pin_B_Write((bitPattern >> 1) & 0x01);
  43              		.loc 1 101 0
  44 000c C4F34000 		ubfx	r0, r4, #1, #1
  45 0010 FFF7FEFF 		bl	Pin_B_Write
  46              	.LVL3:
 102:source\bsw\labboard/sevenSegment.c ****     Pin_C_Write((bitPattern >> 2) & 0x01);
  47              		.loc 1 102 0
  48 0014 C4F38000 		ubfx	r0, r4, #2, #1
  49 0018 FFF7FEFF 		bl	Pin_C_Write
  50              	.LVL4:
 103:source\bsw\labboard/sevenSegment.c ****     Pin_D_Write((bitPattern >> 3) & 0x01);
  51              		.loc 1 103 0
  52 001c C4F3C000 		ubfx	r0, r4, #3, #1
  53 0020 FFF7FEFF 		bl	Pin_D_Write
  54              	.LVL5:
 104:source\bsw\labboard/sevenSegment.c ****     Pin_DP_Write((bitPattern >> 4) & 0x01);
  55              		.loc 1 104 0
  56 0024 C4F30010 		ubfx	r0, r4, #4, #1
  57 0028 FFF7FEFF 		bl	Pin_DP_Write
  58              	.LVL6:
 105:source\bsw\labboard/sevenSegment.c ****     Pin_E_Write((bitPattern >> 5) & 0x01);
  59              		.loc 1 105 0
  60 002c C4F34010 		ubfx	r0, r4, #5, #1
  61 0030 FFF7FEFF 		bl	Pin_E_Write
  62              	.LVL7:
 106:source\bsw\labboard/sevenSegment.c ****     Pin_F_Write((bitPattern >> 6) & 0x01);
  63              		.loc 1 106 0
  64 0034 C4F38010 		ubfx	r0, r4, #6, #1
  65 0038 FFF7FEFF 		bl	Pin_F_Write
ARM GAS  C:\Users\abhim\AppData\Local\Temp\ccdFcH6e.s 			page 4


  66              	.LVL8:
 107:source\bsw\labboard/sevenSegment.c ****     Pin_G_Write((bitPattern >> 7) & 0x01);
  67              		.loc 1 107 0
  68 003c E009     		lsrs	r0, r4, #7
  69 003e FFF7FEFF 		bl	Pin_G_Write
  70              	.LVL9:
 108:source\bsw\labboard/sevenSegment.c ****     return RC_SUCCESS;
 109:source\bsw\labboard/sevenSegment.c **** }
  71              		.loc 1 109 0
  72 0042 0020     		movs	r0, #0
  73 0044 10BD     		pop	{r4, pc}
  74              		.cfi_endproc
  75              	.LFE112:
  76              		.size	sevenSegmentDisplay, .-sevenSegmentDisplay
  77 0046 00BF     		.section	.text.sevenSegmentInit,"ax",%progbits
  78              		.align	2
  79              		.global	sevenSegmentInit
  80              		.thumb
  81              		.thumb_func
  82              		.type	sevenSegmentInit, %function
  83              	sevenSegmentInit:
  84              	.LFB111:
  61:source\bsw\labboard/sevenSegment.c ****     Pin_SelA_Write(1);
  85              		.loc 1 61 0
  86              		.cfi_startproc
  87              		@ args = 0, pretend = 0, frame = 0
  88              		@ frame_needed = 0, uses_anonymous_args = 0
  89 0000 08B5     		push	{r3, lr}
  90              		.cfi_def_cfa_offset 8
  91              		.cfi_offset 3, -8
  92              		.cfi_offset 14, -4
  62:source\bsw\labboard/sevenSegment.c ****     uint8_t bitPattern = 0b00111111;
  93              		.loc 1 62 0
  94 0002 0120     		movs	r0, #1
  95 0004 FFF7FEFF 		bl	Pin_SelA_Write
  96              	.LVL10:
  64:source\bsw\labboard/sevenSegment.c ****     Pin_SelA_Write(0);
  97              		.loc 1 64 0
  98 0008 3F20     		movs	r0, #63
  99 000a FFF7FEFF 		bl	sevenSegmentDisplay
 100              	.LVL11:
  65:source\bsw\labboard/sevenSegment.c ****     sevenSegmentDisplay(bitPattern);
 101              		.loc 1 65 0
 102 000e 0020     		movs	r0, #0
 103 0010 FFF7FEFF 		bl	Pin_SelA_Write
 104              	.LVL12:
  66:source\bsw\labboard/sevenSegment.c ****     return RC_SUCCESS;
 105              		.loc 1 66 0
 106 0014 3F20     		movs	r0, #63
 107 0016 FFF7FEFF 		bl	sevenSegmentDisplay
 108              	.LVL13:
  68:source\bsw\labboard/sevenSegment.c **** 
 109              		.loc 1 68 0
 110 001a 0020     		movs	r0, #0
 111 001c 08BD     		pop	{r3, pc}
 112              		.cfi_endproc
 113              	.LFE111:
ARM GAS  C:\Users\abhim\AppData\Local\Temp\ccdFcH6e.s 			page 5


 114              		.size	sevenSegmentInit, .-sevenSegmentInit
 115              		.comm	systickCounter,4,4
 116              		.comm	game,8,4
 117 001e 00BF     		.text
 118              	.Letext0:
 119              		.file 2 "c:\\program files (x86)\\cypress\\psoc creator\\4.4\\psoc creator\\import\\gnu\\arm\\5.4.
 120              		.file 3 "c:\\program files (x86)\\cypress\\psoc creator\\4.4\\psoc creator\\import\\gnu\\arm\\5.4.
 121              		.file 4 "Generated_Source\\PSoC5/ErikaOS_1_common_ee_types.inc"
 122              		.file 5 "Generated_Source\\PSoC5/ErikaOS_1_cortex_mx_ee_cpu.inc"
 123              		.file 6 ".\\source\\bsw/global.h"
 124              		.file 7 "source\\bsw\\labboard\\game.h"
 125              		.file 8 "Generated_Source\\PSoC5/ErikaOS_1_ee_oo_intfunc.inc"
 126              		.file 9 "Generated_Source\\PSoC5/ErikaOS_1_cortex_mx_ee_context.inc"
 127              		.file 10 "Generated_Source\\PSoC5/ErikaOS_1_common_ee_primitives.inc"
 128              		.file 11 "Generated_Source\\PSoC5/core_cm3.h"
 129              		.file 12 "Generated_Source\\PSoC5/Pin_A.h"
 130              		.file 13 "Generated_Source\\PSoC5/Pin_B.h"
 131              		.file 14 "Generated_Source\\PSoC5/Pin_C.h"
 132              		.file 15 "Generated_Source\\PSoC5/Pin_D.h"
 133              		.file 16 "Generated_Source\\PSoC5/Pin_DP.h"
 134              		.file 17 "Generated_Source\\PSoC5/Pin_E.h"
 135              		.file 18 "Generated_Source\\PSoC5/Pin_F.h"
 136              		.file 19 "Generated_Source\\PSoC5/Pin_G.h"
 137              		.file 20 "Generated_Source\\PSoC5/Pin_SelA.h"